
bomb:     file format elf64-x86-64


Disassembly of section .init:

0000000000400c98 <_init>:
  400c98:	48 83 ec 08          	sub    $0x8,%rsp
  400c9c:	48 8b 05 55 43 20 00 	mov    0x204355(%rip),%rax        # 604ff8 <_DYNAMIC+0x1d0>
  400ca3:	48 85 c0             	test   %rax,%rax
  400ca6:	74 05                	je     400cad <_init+0x15>
  400ca8:	e8 53 02 00 00       	callq  400f00 <socket@plt+0x10>
  400cad:	48 83 c4 08          	add    $0x8,%rsp
  400cb1:	c3                   	retq   

Disassembly of section .plt:

0000000000400cc0 <getenv@plt-0x10>:
  400cc0:	ff 35 42 43 20 00    	pushq  0x204342(%rip)        # 605008 <_GLOBAL_OFFSET_TABLE_+0x8>
  400cc6:	ff 25 44 43 20 00    	jmpq   *0x204344(%rip)        # 605010 <_GLOBAL_OFFSET_TABLE_+0x10>
  400ccc:	0f 1f 40 00          	nopl   0x0(%rax)

0000000000400cd0 <getenv@plt>:
  400cd0:	ff 25 42 43 20 00    	jmpq   *0x204342(%rip)        # 605018 <_GLOBAL_OFFSET_TABLE_+0x18>
  400cd6:	68 00 00 00 00       	pushq  $0x0
  400cdb:	e9 e0 ff ff ff       	jmpq   400cc0 <_init+0x28>

0000000000400ce0 <free@plt>:
  400ce0:	ff 25 3a 43 20 00    	jmpq   *0x20433a(%rip)        # 605020 <_GLOBAL_OFFSET_TABLE_+0x20>
  400ce6:	68 01 00 00 00       	pushq  $0x1
  400ceb:	e9 d0 ff ff ff       	jmpq   400cc0 <_init+0x28>

0000000000400cf0 <__errno_location@plt>:
  400cf0:	ff 25 32 43 20 00    	jmpq   *0x204332(%rip)        # 605028 <_GLOBAL_OFFSET_TABLE_+0x28>
  400cf6:	68 02 00 00 00       	pushq  $0x2
  400cfb:	e9 c0 ff ff ff       	jmpq   400cc0 <_init+0x28>

0000000000400d00 <strcpy@plt>:
  400d00:	ff 25 2a 43 20 00    	jmpq   *0x20432a(%rip)        # 605030 <_GLOBAL_OFFSET_TABLE_+0x30>
  400d06:	68 03 00 00 00       	pushq  $0x3
  400d0b:	e9 b0 ff ff ff       	jmpq   400cc0 <_init+0x28>

0000000000400d10 <puts@plt>:
  400d10:	ff 25 22 43 20 00    	jmpq   *0x204322(%rip)        # 605038 <_GLOBAL_OFFSET_TABLE_+0x38>
  400d16:	68 04 00 00 00       	pushq  $0x4
  400d1b:	e9 a0 ff ff ff       	jmpq   400cc0 <_init+0x28>

0000000000400d20 <write@plt>:
  400d20:	ff 25 1a 43 20 00    	jmpq   *0x20431a(%rip)        # 605040 <_GLOBAL_OFFSET_TABLE_+0x40>
  400d26:	68 05 00 00 00       	pushq  $0x5
  400d2b:	e9 90 ff ff ff       	jmpq   400cc0 <_init+0x28>

0000000000400d30 <strlen@plt>:
  400d30:	ff 25 12 43 20 00    	jmpq   *0x204312(%rip)        # 605048 <_GLOBAL_OFFSET_TABLE_+0x48>
  400d36:	68 06 00 00 00       	pushq  $0x6
  400d3b:	e9 80 ff ff ff       	jmpq   400cc0 <_init+0x28>

0000000000400d40 <__stack_chk_fail@plt>:
  400d40:	ff 25 0a 43 20 00    	jmpq   *0x20430a(%rip)        # 605050 <_GLOBAL_OFFSET_TABLE_+0x50>
  400d46:	68 07 00 00 00       	pushq  $0x7
  400d4b:	e9 70 ff ff ff       	jmpq   400cc0 <_init+0x28>

0000000000400d50 <strchr@plt>:
  400d50:	ff 25 02 43 20 00    	jmpq   *0x204302(%rip)        # 605058 <_GLOBAL_OFFSET_TABLE_+0x58>
  400d56:	68 08 00 00 00       	pushq  $0x8
  400d5b:	e9 60 ff ff ff       	jmpq   400cc0 <_init+0x28>

0000000000400d60 <alarm@plt>:
  400d60:	ff 25 fa 42 20 00    	jmpq   *0x2042fa(%rip)        # 605060 <_GLOBAL_OFFSET_TABLE_+0x60>
  400d66:	68 09 00 00 00       	pushq  $0x9
  400d6b:	e9 50 ff ff ff       	jmpq   400cc0 <_init+0x28>

0000000000400d70 <close@plt>:
  400d70:	ff 25 f2 42 20 00    	jmpq   *0x2042f2(%rip)        # 605068 <_GLOBAL_OFFSET_TABLE_+0x68>
  400d76:	68 0a 00 00 00       	pushq  $0xa
  400d7b:	e9 40 ff ff ff       	jmpq   400cc0 <_init+0x28>

0000000000400d80 <read@plt>:
  400d80:	ff 25 ea 42 20 00    	jmpq   *0x2042ea(%rip)        # 605070 <_GLOBAL_OFFSET_TABLE_+0x70>
  400d86:	68 0b 00 00 00       	pushq  $0xb
  400d8b:	e9 30 ff ff ff       	jmpq   400cc0 <_init+0x28>

0000000000400d90 <__libc_start_main@plt>:
  400d90:	ff 25 e2 42 20 00    	jmpq   *0x2042e2(%rip)        # 605078 <_GLOBAL_OFFSET_TABLE_+0x78>
  400d96:	68 0c 00 00 00       	pushq  $0xc
  400d9b:	e9 20 ff ff ff       	jmpq   400cc0 <_init+0x28>

0000000000400da0 <srand@plt>:
  400da0:	ff 25 da 42 20 00    	jmpq   *0x2042da(%rip)        # 605080 <_GLOBAL_OFFSET_TABLE_+0x80>
  400da6:	68 0d 00 00 00       	pushq  $0xd
  400dab:	e9 10 ff ff ff       	jmpq   400cc0 <_init+0x28>

0000000000400db0 <memcmp@plt>:
  400db0:	ff 25 d2 42 20 00    	jmpq   *0x2042d2(%rip)        # 605088 <_GLOBAL_OFFSET_TABLE_+0x88>
  400db6:	68 0e 00 00 00       	pushq  $0xe
  400dbb:	e9 00 ff ff ff       	jmpq   400cc0 <_init+0x28>

0000000000400dc0 <fgets@plt>:
  400dc0:	ff 25 ca 42 20 00    	jmpq   *0x2042ca(%rip)        # 605090 <_GLOBAL_OFFSET_TABLE_+0x90>
  400dc6:	68 0f 00 00 00       	pushq  $0xf
  400dcb:	e9 f0 fe ff ff       	jmpq   400cc0 <_init+0x28>

0000000000400dd0 <signal@plt>:
  400dd0:	ff 25 c2 42 20 00    	jmpq   *0x2042c2(%rip)        # 605098 <_GLOBAL_OFFSET_TABLE_+0x98>
  400dd6:	68 10 00 00 00       	pushq  $0x10
  400ddb:	e9 e0 fe ff ff       	jmpq   400cc0 <_init+0x28>

0000000000400de0 <gethostbyname@plt>:
  400de0:	ff 25 ba 42 20 00    	jmpq   *0x2042ba(%rip)        # 6050a0 <_GLOBAL_OFFSET_TABLE_+0xa0>
  400de6:	68 11 00 00 00       	pushq  $0x11
  400deb:	e9 d0 fe ff ff       	jmpq   400cc0 <_init+0x28>

0000000000400df0 <__memmove_chk@plt>:
  400df0:	ff 25 b2 42 20 00    	jmpq   *0x2042b2(%rip)        # 6050a8 <_GLOBAL_OFFSET_TABLE_+0xa8>
  400df6:	68 12 00 00 00       	pushq  $0x12
  400dfb:	e9 c0 fe ff ff       	jmpq   400cc0 <_init+0x28>

0000000000400e00 <memcpy@plt>:
  400e00:	ff 25 aa 42 20 00    	jmpq   *0x2042aa(%rip)        # 6050b0 <_GLOBAL_OFFSET_TABLE_+0xb0>
  400e06:	68 13 00 00 00       	pushq  $0x13
  400e0b:	e9 b0 fe ff ff       	jmpq   400cc0 <_init+0x28>

0000000000400e10 <malloc@plt>:
  400e10:	ff 25 a2 42 20 00    	jmpq   *0x2042a2(%rip)        # 6050b8 <_GLOBAL_OFFSET_TABLE_+0xb8>
  400e16:	68 14 00 00 00       	pushq  $0x14
  400e1b:	e9 a0 fe ff ff       	jmpq   400cc0 <_init+0x28>

0000000000400e20 <fflush@plt>:
  400e20:	ff 25 9a 42 20 00    	jmpq   *0x20429a(%rip)        # 6050c0 <_GLOBAL_OFFSET_TABLE_+0xc0>
  400e26:	68 15 00 00 00       	pushq  $0x15
  400e2b:	e9 90 fe ff ff       	jmpq   400cc0 <_init+0x28>

0000000000400e30 <__isoc99_sscanf@plt>:
  400e30:	ff 25 92 42 20 00    	jmpq   *0x204292(%rip)        # 6050c8 <_GLOBAL_OFFSET_TABLE_+0xc8>
  400e36:	68 16 00 00 00       	pushq  $0x16
  400e3b:	e9 80 fe ff ff       	jmpq   400cc0 <_init+0x28>

0000000000400e40 <__strcpy_chk@plt>:
  400e40:	ff 25 8a 42 20 00    	jmpq   *0x20428a(%rip)        # 6050d0 <_GLOBAL_OFFSET_TABLE_+0xd0>
  400e46:	68 17 00 00 00       	pushq  $0x17
  400e4b:	e9 70 fe ff ff       	jmpq   400cc0 <_init+0x28>

0000000000400e50 <__printf_chk@plt>:
  400e50:	ff 25 82 42 20 00    	jmpq   *0x204282(%rip)        # 6050d8 <_GLOBAL_OFFSET_TABLE_+0xd8>
  400e56:	68 18 00 00 00       	pushq  $0x18
  400e5b:	e9 60 fe ff ff       	jmpq   400cc0 <_init+0x28>

0000000000400e60 <fopen@plt>:
  400e60:	ff 25 7a 42 20 00    	jmpq   *0x20427a(%rip)        # 6050e0 <_GLOBAL_OFFSET_TABLE_+0xe0>
  400e66:	68 19 00 00 00       	pushq  $0x19
  400e6b:	e9 50 fe ff ff       	jmpq   400cc0 <_init+0x28>

0000000000400e70 <strtoul@plt>:
  400e70:	ff 25 72 42 20 00    	jmpq   *0x204272(%rip)        # 6050e8 <_GLOBAL_OFFSET_TABLE_+0xe8>
  400e76:	68 1a 00 00 00       	pushq  $0x1a
  400e7b:	e9 40 fe ff ff       	jmpq   400cc0 <_init+0x28>

0000000000400e80 <exit@plt>:
  400e80:	ff 25 6a 42 20 00    	jmpq   *0x20426a(%rip)        # 6050f0 <_GLOBAL_OFFSET_TABLE_+0xf0>
  400e86:	68 1b 00 00 00       	pushq  $0x1b
  400e8b:	e9 30 fe ff ff       	jmpq   400cc0 <_init+0x28>

0000000000400e90 <connect@plt>:
  400e90:	ff 25 62 42 20 00    	jmpq   *0x204262(%rip)        # 6050f8 <_GLOBAL_OFFSET_TABLE_+0xf8>
  400e96:	68 1c 00 00 00       	pushq  $0x1c
  400e9b:	e9 20 fe ff ff       	jmpq   400cc0 <_init+0x28>

0000000000400ea0 <__fprintf_chk@plt>:
  400ea0:	ff 25 5a 42 20 00    	jmpq   *0x20425a(%rip)        # 605100 <_GLOBAL_OFFSET_TABLE_+0x100>
  400ea6:	68 1d 00 00 00       	pushq  $0x1d
  400eab:	e9 10 fe ff ff       	jmpq   400cc0 <_init+0x28>

0000000000400eb0 <sleep@plt>:
  400eb0:	ff 25 52 42 20 00    	jmpq   *0x204252(%rip)        # 605108 <_GLOBAL_OFFSET_TABLE_+0x108>
  400eb6:	68 1e 00 00 00       	pushq  $0x1e
  400ebb:	e9 00 fe ff ff       	jmpq   400cc0 <_init+0x28>

0000000000400ec0 <rand@plt>:
  400ec0:	ff 25 4a 42 20 00    	jmpq   *0x20424a(%rip)        # 605110 <_GLOBAL_OFFSET_TABLE_+0x110>
  400ec6:	68 1f 00 00 00       	pushq  $0x1f
  400ecb:	e9 f0 fd ff ff       	jmpq   400cc0 <_init+0x28>

0000000000400ed0 <__ctype_b_loc@plt>:
  400ed0:	ff 25 42 42 20 00    	jmpq   *0x204242(%rip)        # 605118 <_GLOBAL_OFFSET_TABLE_+0x118>
  400ed6:	68 20 00 00 00       	pushq  $0x20
  400edb:	e9 e0 fd ff ff       	jmpq   400cc0 <_init+0x28>

0000000000400ee0 <__sprintf_chk@plt>:
  400ee0:	ff 25 3a 42 20 00    	jmpq   *0x20423a(%rip)        # 605120 <_GLOBAL_OFFSET_TABLE_+0x120>
  400ee6:	68 21 00 00 00       	pushq  $0x21
  400eeb:	e9 d0 fd ff ff       	jmpq   400cc0 <_init+0x28>

0000000000400ef0 <socket@plt>:
  400ef0:	ff 25 32 42 20 00    	jmpq   *0x204232(%rip)        # 605128 <_GLOBAL_OFFSET_TABLE_+0x128>
  400ef6:	68 22 00 00 00       	pushq  $0x22
  400efb:	e9 c0 fd ff ff       	jmpq   400cc0 <_init+0x28>

Disassembly of section .plt.got:

0000000000400f00 <.plt.got>:
  400f00:	ff 25 f2 40 20 00    	jmpq   *0x2040f2(%rip)        # 604ff8 <_DYNAMIC+0x1d0>
  400f06:	66 90                	xchg   %ax,%ax

Disassembly of section .text:

0000000000400f10 <sigint_handler.part.2>:
  400f10:	50                   	push   %rax
  400f11:	bf 98 3a 40 00       	mov    $0x403a98,%edi
  400f16:	e8 f5 fd ff ff       	callq  400d10 <puts@plt>
  400f1b:	bf 03 00 00 00       	mov    $0x3,%edi
  400f20:	e8 8b ff ff ff       	callq  400eb0 <sleep@plt>
  400f25:	bf ff 30 40 00       	mov    $0x4030ff,%edi
  400f2a:	e8 e1 fd ff ff       	callq  400d10 <puts@plt>
  400f2f:	bf 01 00 00 00       	mov    $0x1,%edi
  400f34:	e8 77 ff ff ff       	callq  400eb0 <sleep@plt>
  400f39:	48 8b 3d c0 43 20 00 	mov    0x2043c0(%rip),%rdi        # 605300 <__TMC_END__>
  400f40:	e8 db fe ff ff       	callq  400e20 <fflush@plt>
  400f45:	bf ff 30 40 00       	mov    $0x4030ff,%edi
  400f4a:	e8 c1 fd ff ff       	callq  400d10 <puts@plt>
  400f4f:	bf 01 00 00 00       	mov    $0x1,%edi
  400f54:	e8 57 ff ff ff       	callq  400eb0 <sleep@plt>
  400f59:	48 8b 3d a0 43 20 00 	mov    0x2043a0(%rip),%rdi        # 605300 <__TMC_END__>
  400f60:	e8 bb fe ff ff       	callq  400e20 <fflush@plt>
  400f65:	bf c5 39 40 00       	mov    $0x4039c5,%edi
  400f6a:	e8 a1 fd ff ff       	callq  400d10 <puts@plt>
  400f6f:	bf 10 00 00 00       	mov    $0x10,%edi
  400f74:	e8 07 ff ff ff       	callq  400e80 <exit@plt>
  400f79:	0f 1f 80 00 00 00 00 	nopl   0x0(%rax)

0000000000400f80 <_start>:
  400f80:	31 ed                	xor    %ebp,%ebp
  400f82:	49 89 d1             	mov    %rdx,%r9
  400f85:	5e                   	pop    %rsi
  400f86:	48 89 e2             	mov    %rsp,%rdx
  400f89:	48 83 e4 f0          	and    $0xfffffffffffffff0,%rsp
  400f8d:	50                   	push   %rax
  400f8e:	54                   	push   %rsp
  400f8f:	49 c7 c0 50 30 40 00 	mov    $0x403050,%r8
  400f96:	48 c7 c1 e0 2f 40 00 	mov    $0x402fe0,%rcx
  400f9d:	48 c7 c7 76 10 40 00 	mov    $0x401076,%rdi
  400fa4:	e8 e7 fd ff ff       	callq  400d90 <__libc_start_main@plt>
  400fa9:	f4                   	hlt    
  400faa:	66 0f 1f 44 00 00    	nopw   0x0(%rax,%rax,1)

0000000000400fb0 <deregister_tm_clones>:
  400fb0:	b8 07 53 60 00       	mov    $0x605307,%eax
  400fb5:	55                   	push   %rbp
  400fb6:	48 2d 00 53 60 00    	sub    $0x605300,%rax
  400fbc:	48 83 f8 0e          	cmp    $0xe,%rax
  400fc0:	48 89 e5             	mov    %rsp,%rbp
  400fc3:	76 1b                	jbe    400fe0 <deregister_tm_clones+0x30>
  400fc5:	b8 00 00 00 00       	mov    $0x0,%eax
  400fca:	48 85 c0             	test   %rax,%rax
  400fcd:	74 11                	je     400fe0 <deregister_tm_clones+0x30>
  400fcf:	5d                   	pop    %rbp
  400fd0:	bf 00 53 60 00       	mov    $0x605300,%edi
  400fd5:	ff e0                	jmpq   *%rax
  400fd7:	66 0f 1f 84 00 00 00 	nopw   0x0(%rax,%rax,1)
  400fde:	00 00 
  400fe0:	5d                   	pop    %rbp
  400fe1:	c3                   	retq   
  400fe2:	0f 1f 40 00          	nopl   0x0(%rax)
  400fe6:	66 2e 0f 1f 84 00 00 	nopw   %cs:0x0(%rax,%rax,1)
  400fed:	00 00 00 

0000000000400ff0 <register_tm_clones>:
  400ff0:	be 00 53 60 00       	mov    $0x605300,%esi
  400ff5:	55                   	push   %rbp
  400ff6:	48 81 ee 00 53 60 00 	sub    $0x605300,%rsi
  400ffd:	48 c1 fe 03          	sar    $0x3,%rsi
  401001:	48 89 e5             	mov    %rsp,%rbp
  401004:	48 89 f0             	mov    %rsi,%rax
  401007:	48 c1 e8 3f          	shr    $0x3f,%rax
  40100b:	48 01 c6             	add    %rax,%rsi
  40100e:	48 d1 fe             	sar    %rsi
  401011:	74 15                	je     401028 <register_tm_clones+0x38>
  401013:	b8 00 00 00 00       	mov    $0x0,%eax
  401018:	48 85 c0             	test   %rax,%rax
  40101b:	74 0b                	je     401028 <register_tm_clones+0x38>
  40101d:	5d                   	pop    %rbp
  40101e:	bf 00 53 60 00       	mov    $0x605300,%edi
  401023:	ff e0                	jmpq   *%rax
  401025:	0f 1f 00             	nopl   (%rax)
  401028:	5d                   	pop    %rbp
  401029:	c3                   	retq   
  40102a:	66 0f 1f 44 00 00    	nopw   0x0(%rax,%rax,1)

0000000000401030 <__do_global_dtors_aux>:
  401030:	80 3d f1 42 20 00 00 	cmpb   $0x0,0x2042f1(%rip)        # 605328 <completed.7585>
  401037:	75 11                	jne    40104a <__do_global_dtors_aux+0x1a>
  401039:	55                   	push   %rbp
  40103a:	48 89 e5             	mov    %rsp,%rbp
  40103d:	e8 6e ff ff ff       	callq  400fb0 <deregister_tm_clones>
  401042:	5d                   	pop    %rbp
  401043:	c6 05 de 42 20 00 01 	movb   $0x1,0x2042de(%rip)        # 605328 <completed.7585>
  40104a:	f3 c3                	repz retq 
  40104c:	0f 1f 40 00          	nopl   0x0(%rax)

0000000000401050 <frame_dummy>:
  401050:	bf 20 4e 60 00       	mov    $0x604e20,%edi
  401055:	48 83 3f 00          	cmpq   $0x0,(%rdi)
  401059:	75 05                	jne    401060 <frame_dummy+0x10>
  40105b:	eb 93                	jmp    400ff0 <register_tm_clones>
  40105d:	0f 1f 00             	nopl   (%rax)
  401060:	b8 00 00 00 00       	mov    $0x0,%eax
  401065:	48 85 c0             	test   %rax,%rax
  401068:	74 f1                	je     40105b <frame_dummy+0xb>
  40106a:	55                   	push   %rbp
  40106b:	48 89 e5             	mov    %rsp,%rbp
  40106e:	ff d0                	callq  *%rax
  401070:	5d                   	pop    %rbp
  401071:	e9 7a ff ff ff       	jmpq   400ff0 <register_tm_clones>

0000000000401076 <main>:
  401076:	53                   	push   %rbx
  401077:	83 ff 01             	cmp    $0x1,%edi
  40107a:	75 10                	jne    40108c <main+0x16>
  40107c:	48 8b 05 8d 42 20 00 	mov    0x20428d(%rip),%rax        # 605310 <stdin@@GLIBC_2.2.5>
  401083:	48 89 05 e6 43 20 00 	mov    %rax,0x2043e6(%rip)        # 605470 <infile>
  40108a:	eb 63                	jmp    4010ef <main+0x79>
  40108c:	48 89 f3             	mov    %rsi,%rbx
  40108f:	83 ff 02             	cmp    $0x2,%edi
  401092:	75 3a                	jne    4010ce <main+0x58>
  401094:	48 8b 7e 08          	mov    0x8(%rsi),%rdi
  401098:	be 64 30 40 00       	mov    $0x403064,%esi
  40109d:	e8 be fd ff ff       	callq  400e60 <fopen@plt>
  4010a2:	48 89 05 c7 43 20 00 	mov    %rax,0x2043c7(%rip)        # 605470 <infile>
  4010a9:	48 85 c0             	test   %rax,%rax
  4010ac:	75 41                	jne    4010ef <main+0x79>
  4010ae:	48 8b 4b 08          	mov    0x8(%rbx),%rcx
  4010b2:	48 8b 13             	mov    (%rbx),%rdx
  4010b5:	be 66 30 40 00       	mov    $0x403066,%esi
  4010ba:	bf 01 00 00 00       	mov    $0x1,%edi
  4010bf:	e8 8c fd ff ff       	callq  400e50 <__printf_chk@plt>
  4010c4:	bf 08 00 00 00       	mov    $0x8,%edi
  4010c9:	e8 b2 fd ff ff       	callq  400e80 <exit@plt>
  4010ce:	48 8b 16             	mov    (%rsi),%rdx
  4010d1:	be 83 30 40 00       	mov    $0x403083,%esi
  4010d6:	bf 01 00 00 00       	mov    $0x1,%edi
  4010db:	b8 00 00 00 00       	mov    $0x0,%eax
  4010e0:	e8 6b fd ff ff       	callq  400e50 <__printf_chk@plt>
  4010e5:	bf 08 00 00 00       	mov    $0x8,%edi
  4010ea:	e8 91 fd ff ff       	callq  400e80 <exit@plt>
  4010ef:	e8 5c 0a 00 00       	callq  401b50 <invalid_phase+0x30>
  4010f4:	bf 08 31 40 00       	mov    $0x403108,%edi
  4010f9:	e8 12 fc ff ff       	callq  400d10 <puts@plt>
  4010fe:	bf 40 31 40 00       	mov    $0x403140,%edi
  401103:	e8 08 fc ff ff       	callq  400d10 <puts@plt>
  401108:	e8 03 0f 00 00       	callq  402010 <read_line>
  40110d:	48 89 c7             	mov    %rax,%rdi
  401110:	e8 3d 01 00 00       	callq  401252 <phase1>
  401115:	e8 76 11 00 00       	callq  402290 <phase_defused>
  40111a:	bf 70 31 40 00       	mov    $0x403170,%edi
  40111f:	e8 ec fb ff ff       	callq  400d10 <puts@plt>
  401124:	e8 e7 0e 00 00       	callq  402010 <read_line>
  401129:	48 89 c7             	mov    %rax,%rdi
  40112c:	e8 6e 01 00 00       	callq  40129f <phase2>
  401131:	e8 5a 11 00 00       	callq  402290 <phase_defused>
  401136:	bf 9d 30 40 00       	mov    $0x40309d,%edi
  40113b:	e8 d0 fb ff ff       	callq  400d10 <puts@plt>
  401140:	e8 cb 0e 00 00       	callq  402010 <read_line>
  401145:	48 89 c7             	mov    %rax,%rdi
  401148:	e8 37 02 00 00       	callq  401384 <phase3>
  40114d:	e8 3e 11 00 00       	callq  402290 <phase_defused>
  401152:	bf bb 30 40 00       	mov    $0x4030bb,%edi
  401157:	e8 b4 fb ff ff       	callq  400d10 <puts@plt>
  40115c:	e8 af 0e 00 00       	callq  402010 <read_line>
  401161:	48 89 c7             	mov    %rax,%rdi
  401164:	e8 e6 03 00 00       	callq  40154f <phase4>
  401169:	e8 22 11 00 00       	callq  402290 <phase_defused>
  40116e:	bf ca 30 40 00       	mov    $0x4030ca,%edi
  401173:	e8 98 fb ff ff       	callq  400d10 <puts@plt>
  401178:	e8 93 0e 00 00       	callq  402010 <read_line>
  40117d:	48 89 c7             	mov    %rax,%rdi
  401180:	e8 50 05 00 00       	callq  4016d5 <phase5>
  401185:	e8 06 11 00 00       	callq  402290 <phase_defused>
  40118a:	bf e5 30 40 00       	mov    $0x4030e5,%edi
  40118f:	e8 7c fb ff ff       	callq  400d10 <puts@plt>
  401194:	e8 77 0e 00 00       	callq  402010 <read_line>
  401199:	48 89 c7             	mov    %rax,%rdi
  40119c:	e8 0f 06 00 00       	callq  4017b0 <phase6>
  4011a1:	e8 ea 10 00 00       	callq  402290 <phase_defused>
  4011a6:	b8 00 00 00 00       	mov    $0x0,%eax
  4011ab:	5b                   	pop    %rbx
  4011ac:	c3                   	retq   

00000000004011ad <string_length>:
  4011ad:	b8 00 00 00 00       	mov    $0x0,%eax
  4011b2:	eb 07                	jmp    4011bb <string_length+0xe>
  4011b4:	48 83 c7 01          	add    $0x1,%rdi
  4011b8:	83 c0 01             	add    $0x1,%eax
  4011bb:	80 3f 00             	cmpb   $0x0,(%rdi)
  4011be:	75 f4                	jne    4011b4 <string_length+0x7>
  4011c0:	f3 c3                	repz retq 

00000000004011c2 <strings_not_equal>:
  4011c2:	41 54                	push   %r12
  4011c4:	55                   	push   %rbp
  4011c5:	53                   	push   %rbx
  4011c6:	48 89 fb             	mov    %rdi,%rbx
  4011c9:	48 89 f5             	mov    %rsi,%rbp
  4011cc:	e8 dc ff ff ff       	callq  4011ad <string_length>
  4011d1:	41 89 c4             	mov    %eax,%r12d
  4011d4:	48 89 ef             	mov    %rbp,%rdi
  4011d7:	e8 d1 ff ff ff       	callq  4011ad <string_length>
  4011dc:	41 39 c4             	cmp    %eax,%r12d
  4011df:	75 1d                	jne    4011fe <strings_not_equal+0x3c>
  4011e1:	eb 0d                	jmp    4011f0 <strings_not_equal+0x2e>
  4011e3:	3a 45 00             	cmp    0x0(%rbp),%al
  4011e6:	75 1d                	jne    401205 <strings_not_equal+0x43>
  4011e8:	48 83 c3 01          	add    $0x1,%rbx
  4011ec:	48 83 c5 01          	add    $0x1,%rbp
  4011f0:	0f b6 03             	movzbl (%rbx),%eax
  4011f3:	84 c0                	test   %al,%al
  4011f5:	75 ec                	jne    4011e3 <strings_not_equal+0x21>
  4011f7:	b8 00 00 00 00       	mov    $0x0,%eax
  4011fc:	eb 0c                	jmp    40120a <strings_not_equal+0x48>
  4011fe:	b8 01 00 00 00       	mov    $0x1,%eax
  401203:	eb 05                	jmp    40120a <strings_not_equal+0x48>
  401205:	b8 01 00 00 00       	mov    $0x1,%eax
  40120a:	5b                   	pop    %rbx
  40120b:	5d                   	pop    %rbp
  40120c:	41 5c                	pop    %r12
  40120e:	c3                   	retq   
  40120f:	48 83 ec 08          	sub    $0x8,%rsp
  401213:	e8 a8 fc ff ff       	callq  400ec0 <rand@plt>
  401218:	ba e1 83 0f 3e       	mov    $0x3e0f83e1,%edx
  40121d:	89 c1                	mov    %eax,%ecx
  40121f:	bf e0 53 60 00       	mov    $0x6053e0,%edi
  401224:	f7 ea                	imul   %edx
  401226:	89 c8                	mov    %ecx,%eax
  401228:	c1 f8 1f             	sar    $0x1f,%eax
  40122b:	c1 fa 03             	sar    $0x3,%edx
  40122e:	29 c2                	sub    %eax,%edx
  401230:	89 d0                	mov    %edx,%eax
  401232:	c1 e0 05             	shl    $0x5,%eax
  401235:	01 c2                	add    %eax,%edx
  401237:	29 d1                	sub    %edx,%ecx
  401239:	ba 80 00 00 00       	mov    $0x80,%edx
  40123e:	48 63 c9             	movslq %ecx,%rcx
  401241:	48 8b 34 cd c0 51 60 	mov    0x6051c0(,%rcx,8),%rsi
  401248:	00 
  401249:	48 83 c4 08          	add    $0x8,%rsp
  40124d:	e9 ee fb ff ff       	jmpq   400e40 <__strcpy_chk@plt>

0000000000401252 <phase1>:
  401252:	48 83 ec 08          	sub    $0x8,%rsp
  401256:	be e0 53 60 00       	mov    $0x6053e0,%esi
  40125b:	e8 62 ff ff ff       	callq  4011c2 <strings_not_equal>
  401260:	85 c0                	test   %eax,%eax
  401262:	74 05                	je     401269 <phase1+0x17>
  401264:	e8 17 0c 00 00       	callq  401e80 <explode_bomb>
  401269:	48 83 c4 08          	add    $0x8,%rsp
  40126d:	c3                   	retq   
  40126e:	48 83 ec 08          	sub    $0x8,%rsp
  401272:	e8 49 fc ff ff       	callq  400ec0 <rand@plt>
  401277:	ba ab aa aa 2a       	mov    $0x2aaaaaab,%edx
  40127c:	89 c1                	mov    %eax,%ecx
  40127e:	f7 ea                	imul   %edx
  401280:	89 c8                	mov    %ecx,%eax
  401282:	c1 f8 1f             	sar    $0x1f,%eax
  401285:	d1 fa                	sar    %edx
  401287:	29 c2                	sub    %eax,%edx
  401289:	8d 04 52             	lea    (%rdx,%rdx,2),%eax
  40128c:	c1 e0 02             	shl    $0x2,%eax
  40128f:	29 c1                	sub    %eax,%ecx
  401291:	83 c1 01             	add    $0x1,%ecx
  401294:	89 0d 26 41 20 00    	mov    %ecx,0x204126(%rip)        # 6053c0 <completed.7585+0x98>
  40129a:	48 83 c4 08          	add    $0x8,%rsp
  40129e:	c3                   	retq   

000000000040129f <phase2>:
  40129f:	53                   	push   %rbx
  4012a0:	48 83 ec 20          	sub    $0x20,%rsp
  4012a4:	64 48 8b 04 25 28 00 	mov    %fs:0x28,%rax
  4012ab:	00 00 
  4012ad:	48 89 44 24 18       	mov    %rax,0x18(%rsp)
  4012b2:	31 c0                	xor    %eax,%eax
  4012b4:	48 89 e6             	mov    %rsp,%rsi
  4012b7:	e8 04 0c 00 00       	callq  401ec0 <read_six_numbers>
  4012bc:	8b 05 fe 40 20 00    	mov    0x2040fe(%rip),%eax        # 6053c0 <completed.7585+0x98>
  4012c2:	39 04 24             	cmp    %eax,(%rsp)
  4012c5:	74 05                	je     4012cc <phase2+0x2d>
  4012c7:	e8 b4 0b 00 00       	callq  401e80 <explode_bomb>
  4012cc:	bb 01 00 00 00       	mov    $0x1,%ebx
  4012d1:	eb 1b                	jmp    4012ee <phase2+0x4f>
  4012d3:	48 63 c3             	movslq %ebx,%rax
  4012d6:	8d 53 ff             	lea    -0x1(%rbx),%edx
  4012d9:	48 63 d2             	movslq %edx,%rdx
  4012dc:	89 d9                	mov    %ebx,%ecx
  4012de:	03 0c 94             	add    (%rsp,%rdx,4),%ecx
  4012e1:	39 0c 84             	cmp    %ecx,(%rsp,%rax,4)
  4012e4:	74 05                	je     4012eb <phase2+0x4c>
  4012e6:	e8 95 0b 00 00       	callq  401e80 <explode_bomb>
  4012eb:	83 c3 01             	add    $0x1,%ebx
  4012ee:	83 fb 05             	cmp    $0x5,%ebx
  4012f1:	7e e0                	jle    4012d3 <phase2+0x34>
  4012f3:	48 8b 44 24 18       	mov    0x18(%rsp),%rax
  4012f8:	64 48 33 04 25 28 00 	xor    %fs:0x28,%rax
  4012ff:	00 00 
  401301:	74 05                	je     401308 <phase2+0x69>
  401303:	e8 38 fa ff ff       	callq  400d40 <__stack_chk_fail@plt>
  401308:	48 83 c4 20          	add    $0x20,%rsp
  40130c:	5b                   	pop    %rbx
  40130d:	c3                   	retq   
  40130e:	41 54                	push   %r12
  401310:	41 bc 80 53 60 00    	mov    $0x605380,%r12d
  401316:	55                   	push   %rbp
  401317:	bd d3 4d 62 10       	mov    $0x10624dd3,%ebp
  40131c:	53                   	push   %rbx
  40131d:	bb a0 53 60 00       	mov    $0x6053a0,%ebx
  401322:	e8 99 fb ff ff       	callq  400ec0 <rand@plt>
  401327:	89 c1                	mov    %eax,%ecx
  401329:	49 83 c4 04          	add    $0x4,%r12
  40132d:	f7 ed                	imul   %ebp
  40132f:	89 c8                	mov    %ecx,%eax
  401331:	c1 f8 1f             	sar    $0x1f,%eax
  401334:	c1 fa 06             	sar    $0x6,%edx
  401337:	29 c2                	sub    %eax,%edx
  401339:	69 d2 e8 03 00 00    	imul   $0x3e8,%edx,%edx
  40133f:	29 d1                	sub    %edx,%ecx
  401341:	41 89 4c 24 fc       	mov    %ecx,-0x4(%r12)
  401346:	49 81 fc a0 53 60 00 	cmp    $0x6053a0,%r12
  40134d:	75 d3                	jne    401322 <phase2+0x83>
  40134f:	bd 4f ec c4 4e       	mov    $0x4ec4ec4f,%ebp
  401354:	e8 67 fb ff ff       	callq  400ec0 <rand@plt>
  401359:	89 c1                	mov    %eax,%ecx
  40135b:	48 83 c3 04          	add    $0x4,%rbx
  40135f:	f7 ed                	imul   %ebp
  401361:	89 c8                	mov    %ecx,%eax
  401363:	c1 f8 1f             	sar    $0x1f,%eax
  401366:	c1 fa 03             	sar    $0x3,%edx
  401369:	29 c2                	sub    %eax,%edx
  40136b:	6b d2 1a             	imul   $0x1a,%edx,%edx
  40136e:	29 d1                	sub    %edx,%ecx
  401370:	83 c1 41             	add    $0x41,%ecx
  401373:	89 4b fc             	mov    %ecx,-0x4(%rbx)
  401376:	48 81 fb c0 53 60 00 	cmp    $0x6053c0,%rbx
  40137d:	75 d5                	jne    401354 <phase2+0xb5>
  40137f:	5b                   	pop    %rbx
  401380:	5d                   	pop    %rbp
  401381:	41 5c                	pop    %r12
  401383:	c3                   	retq   

0000000000401384 <phase3>:
  401384:	53                   	push   %rbx
  401385:	48 83 ec 20          	sub    $0x20,%rsp
  401389:	64 48 8b 04 25 28 00 	mov    %fs:0x28,%rax
  401390:	00 00 
  401392:	48 89 44 24 18       	mov    %rax,0x18(%rsp)
  401397:	31 c0                	xor    %eax,%eax
  401399:	4c 8d 44 24 14       	lea    0x14(%rsp),%r8
  40139e:	48 8d 4c 24 0f       	lea    0xf(%rsp),%rcx
  4013a3:	48 8d 54 24 10       	lea    0x10(%rsp),%rdx
  4013a8:	be 9a 31 40 00       	mov    $0x40319a,%esi
  4013ad:	e8 7e fa ff ff       	callq  400e30 <__isoc99_sscanf@plt>
  4013b2:	83 f8 02             	cmp    $0x2,%eax
  4013b5:	7f 05                	jg     4013bc <phase3+0x38>
  4013b7:	e8 c4 0a 00 00       	callq  401e80 <explode_bomb>
  4013bc:	83 7c 24 10 07       	cmpl   $0x7,0x10(%rsp)
  4013c1:	0f 87 f0 00 00 00    	ja     4014b7 <phase3+0x133>
  4013c7:	8b 44 24 10          	mov    0x10(%rsp),%eax
  4013cb:	ff 24 c5 c0 31 40 00 	jmpq   *0x4031c0(,%rax,8)
  4013d2:	0f b6 1d cf 3f 20 00 	movzbl 0x203fcf(%rip),%ebx        # 6053a8 <completed.7585+0x80>
  4013d9:	8b 44 24 14          	mov    0x14(%rsp),%eax
  4013dd:	39 05 a5 3f 20 00    	cmp    %eax,0x203fa5(%rip)        # 605388 <completed.7585+0x60>
  4013e3:	0f 84 d8 00 00 00    	je     4014c1 <phase3+0x13d>
  4013e9:	e8 92 0a 00 00       	callq  401e80 <explode_bomb>
  4013ee:	e9 ce 00 00 00       	jmpq   4014c1 <phase3+0x13d>
  4013f3:	0f b6 1d a6 3f 20 00 	movzbl 0x203fa6(%rip),%ebx        # 6053a0 <completed.7585+0x78>
  4013fa:	8b 44 24 14          	mov    0x14(%rsp),%eax
  4013fe:	39 05 7c 3f 20 00    	cmp    %eax,0x203f7c(%rip)        # 605380 <completed.7585+0x58>
  401404:	0f 84 b7 00 00 00    	je     4014c1 <phase3+0x13d>
  40140a:	e8 71 0a 00 00       	callq  401e80 <explode_bomb>
  40140f:	e9 ad 00 00 00       	jmpq   4014c1 <phase3+0x13d>
  401414:	0f b6 1d 91 3f 20 00 	movzbl 0x203f91(%rip),%ebx        # 6053ac <completed.7585+0x84>
  40141b:	8b 44 24 14          	mov    0x14(%rsp),%eax
  40141f:	39 05 67 3f 20 00    	cmp    %eax,0x203f67(%rip)        # 60538c <completed.7585+0x64>
  401425:	0f 84 96 00 00 00    	je     4014c1 <phase3+0x13d>
  40142b:	e8 50 0a 00 00       	callq  401e80 <explode_bomb>
  401430:	e9 8c 00 00 00       	jmpq   4014c1 <phase3+0x13d>
  401435:	0f b6 1d 80 3f 20 00 	movzbl 0x203f80(%rip),%ebx        # 6053bc <completed.7585+0x94>
  40143c:	8b 44 24 14          	mov    0x14(%rsp),%eax
  401440:	39 05 56 3f 20 00    	cmp    %eax,0x203f56(%rip)        # 60539c <completed.7585+0x74>
  401446:	74 79                	je     4014c1 <phase3+0x13d>
  401448:	e8 33 0a 00 00       	callq  401e80 <explode_bomb>
  40144d:	eb 72                	jmp    4014c1 <phase3+0x13d>
  40144f:	0f b6 1d 5e 3f 20 00 	movzbl 0x203f5e(%rip),%ebx        # 6053b4 <completed.7585+0x8c>
  401456:	8b 44 24 14          	mov    0x14(%rsp),%eax
  40145a:	39 05 34 3f 20 00    	cmp    %eax,0x203f34(%rip)        # 605394 <completed.7585+0x6c>
  401460:	74 5f                	je     4014c1 <phase3+0x13d>
  401462:	e8 19 0a 00 00       	callq  401e80 <explode_bomb>
  401467:	eb 58                	jmp    4014c1 <phase3+0x13d>
  401469:	0f b6 1d 34 3f 20 00 	movzbl 0x203f34(%rip),%ebx        # 6053a4 <completed.7585+0x7c>
  401470:	8b 44 24 14          	mov    0x14(%rsp),%eax
  401474:	39 05 0a 3f 20 00    	cmp    %eax,0x203f0a(%rip)        # 605384 <completed.7585+0x5c>
  40147a:	74 45                	je     4014c1 <phase3+0x13d>
  40147c:	e8 ff 09 00 00       	callq  401e80 <explode_bomb>
  401481:	eb 3e                	jmp    4014c1 <phase3+0x13d>
  401483:	0f b6 1d 26 3f 20 00 	movzbl 0x203f26(%rip),%ebx        # 6053b0 <completed.7585+0x88>
  40148a:	8b 44 24 14          	mov    0x14(%rsp),%eax
  40148e:	39 05 fc 3e 20 00    	cmp    %eax,0x203efc(%rip)        # 605390 <completed.7585+0x68>
  401494:	74 2b                	je     4014c1 <phase3+0x13d>
  401496:	e8 e5 09 00 00       	callq  401e80 <explode_bomb>
  40149b:	eb 24                	jmp    4014c1 <phase3+0x13d>
  40149d:	0f b6 1d 14 3f 20 00 	movzbl 0x203f14(%rip),%ebx        # 6053b8 <completed.7585+0x90>
  4014a4:	8b 44 24 14          	mov    0x14(%rsp),%eax
  4014a8:	39 05 ea 3e 20 00    	cmp    %eax,0x203eea(%rip)        # 605398 <completed.7585+0x70>
  4014ae:	74 11                	je     4014c1 <phase3+0x13d>
  4014b0:	e8 cb 09 00 00       	callq  401e80 <explode_bomb>
  4014b5:	eb 0a                	jmp    4014c1 <phase3+0x13d>
  4014b7:	e8 c4 09 00 00       	callq  401e80 <explode_bomb>
  4014bc:	bb 66 00 00 00       	mov    $0x66,%ebx
  4014c1:	3a 5c 24 0f          	cmp    0xf(%rsp),%bl
  4014c5:	74 05                	je     4014cc <phase3+0x148>
  4014c7:	e8 b4 09 00 00       	callq  401e80 <explode_bomb>
  4014cc:	48 8b 44 24 18       	mov    0x18(%rsp),%rax
  4014d1:	64 48 33 04 25 28 00 	xor    %fs:0x28,%rax
  4014d8:	00 00 
  4014da:	74 05                	je     4014e1 <phase3+0x15d>
  4014dc:	e8 5f f8 ff ff       	callq  400d40 <__stack_chk_fail@plt>
  4014e1:	48 83 c4 20          	add    $0x20,%rsp
  4014e5:	5b                   	pop    %rbx
  4014e6:	c3                   	retq   

00000000004014e7 <fun4>:
  4014e7:	85 ff                	test   %edi,%edi
  4014e9:	7e 28                	jle    401513 <fun4+0x2c>
  4014eb:	83 ff 01             	cmp    $0x1,%edi
  4014ee:	74 29                	je     401519 <fun4+0x32>
  4014f0:	41 54                	push   %r12
  4014f2:	55                   	push   %rbp
  4014f3:	53                   	push   %rbx
  4014f4:	89 f3                	mov    %esi,%ebx
  4014f6:	89 fd                	mov    %edi,%ebp
  4014f8:	8d 7f ff             	lea    -0x1(%rdi),%edi
  4014fb:	e8 e7 ff ff ff       	callq  4014e7 <fun4>
  401500:	44 8d 24 03          	lea    (%rbx,%rax,1),%r12d
  401504:	8d 7d fe             	lea    -0x2(%rbp),%edi
  401507:	89 de                	mov    %ebx,%esi
  401509:	e8 d9 ff ff ff       	callq  4014e7 <fun4>
  40150e:	44 01 e0             	add    %r12d,%eax
  401511:	eb 09                	jmp    40151c <fun4+0x35>
  401513:	b8 00 00 00 00       	mov    $0x0,%eax
  401518:	c3                   	retq   
  401519:	89 f0                	mov    %esi,%eax
  40151b:	c3                   	retq   
  40151c:	5b                   	pop    %rbx
  40151d:	5d                   	pop    %rbp
  40151e:	41 5c                	pop    %r12
  401520:	c3                   	retq   
  401521:	48 83 ec 08          	sub    $0x8,%rsp
  401525:	e8 96 f9 ff ff       	callq  400ec0 <rand@plt>
  40152a:	ba 67 66 66 66       	mov    $0x66666667,%edx
  40152f:	89 c1                	mov    %eax,%ecx
  401531:	f7 ea                	imul   %edx
  401533:	89 c8                	mov    %ecx,%eax
  401535:	c1 f8 1f             	sar    $0x1f,%eax
  401538:	d1 fa                	sar    %edx
  40153a:	29 c2                	sub    %eax,%edx
  40153c:	8d 04 92             	lea    (%rdx,%rdx,4),%eax
  40153f:	29 c1                	sub    %eax,%ecx
  401541:	83 c1 05             	add    $0x5,%ecx
  401544:	89 0d 22 3e 20 00    	mov    %ecx,0x203e22(%rip)        # 60536c <completed.7585+0x44>
  40154a:	48 83 c4 08          	add    $0x8,%rsp
  40154e:	c3                   	retq   

000000000040154f <phase4>:
  40154f:	48 83 ec 18          	sub    $0x18,%rsp
  401553:	64 48 8b 04 25 28 00 	mov    %fs:0x28,%rax
  40155a:	00 00 
  40155c:	48 89 44 24 08       	mov    %rax,0x8(%rsp)
  401561:	31 c0                	xor    %eax,%eax
  401563:	48 89 e1             	mov    %rsp,%rcx
  401566:	48 8d 54 24 04       	lea    0x4(%rsp),%rdx
  40156b:	be 4c 3a 40 00       	mov    $0x403a4c,%esi
  401570:	e8 bb f8 ff ff       	callq  400e30 <__isoc99_sscanf@plt>
  401575:	83 f8 02             	cmp    $0x2,%eax
  401578:	75 0d                	jne    401587 <phase4+0x38>
  40157a:	8b 04 24             	mov    (%rsp),%eax
  40157d:	83 f8 01             	cmp    $0x1,%eax
  401580:	7e 05                	jle    401587 <phase4+0x38>
  401582:	83 f8 04             	cmp    $0x4,%eax
  401585:	7e 05                	jle    40158c <phase4+0x3d>
  401587:	e8 f4 08 00 00       	callq  401e80 <explode_bomb>
  40158c:	8b 34 24             	mov    (%rsp),%esi
  40158f:	8b 3d d7 3d 20 00    	mov    0x203dd7(%rip),%edi        # 60536c <completed.7585+0x44>
  401595:	e8 4d ff ff ff       	callq  4014e7 <fun4>
  40159a:	3b 44 24 04          	cmp    0x4(%rsp),%eax
  40159e:	74 05                	je     4015a5 <phase4+0x56>
  4015a0:	e8 db 08 00 00       	callq  401e80 <explode_bomb>
  4015a5:	48 8b 44 24 08       	mov    0x8(%rsp),%rax
  4015aa:	64 48 33 04 25 28 00 	xor    %fs:0x28,%rax
  4015b1:	00 00 
  4015b3:	74 05                	je     4015ba <phase4+0x6b>
  4015b5:	e8 86 f7 ff ff       	callq  400d40 <__stack_chk_fail@plt>
  4015ba:	48 83 c4 18          	add    $0x18,%rsp
  4015be:	c3                   	retq   
  4015bf:	41 55                	push   %r13
  4015c1:	41 54                	push   %r12
  4015c3:	41 bc 4f ec c4 4e    	mov    $0x4ec4ec4f,%r12d
  4015c9:	55                   	push   %rbp
  4015ca:	53                   	push   %rbx
  4015cb:	bd 64 00 00 00       	mov    $0x64,%ebp
  4015d0:	48 83 ec 08          	sub    $0x8,%rsp
  4015d4:	c6 05 85 3d 20 00 11 	movb   $0x11,0x203d85(%rip)        # 605360 <completed.7585+0x38>
  4015db:	c6 05 7f 3d 20 00 12 	movb   $0x12,0x203d7f(%rip)        # 605361 <completed.7585+0x39>
  4015e2:	66 0f 6f 05 c6 23 00 	movdqa 0x23c6(%rip),%xmm0        # 4039b0 <_IO_stdin_used+0x950>
  4015e9:	00 
  4015ea:	c6 05 71 3d 20 00 13 	movb   $0x13,0x203d71(%rip)        # 605362 <completed.7585+0x3a>
  4015f1:	c6 05 6b 3d 20 00 14 	movb   $0x14,0x203d6b(%rip)        # 605363 <completed.7585+0x3b>
  4015f8:	0f 29 05 51 3d 20 00 	movaps %xmm0,0x203d51(%rip)        # 605350 <completed.7585+0x28>
  4015ff:	c6 05 5e 3d 20 00 15 	movb   $0x15,0x203d5e(%rip)        # 605364 <completed.7585+0x3c>
  401606:	c6 05 58 3d 20 00 16 	movb   $0x16,0x203d58(%rip)        # 605365 <completed.7585+0x3d>
  40160d:	c6 05 52 3d 20 00 17 	movb   $0x17,0x203d52(%rip)        # 605366 <completed.7585+0x3e>
  401614:	c6 05 4c 3d 20 00 18 	movb   $0x18,0x203d4c(%rip)        # 605367 <completed.7585+0x3f>
  40161b:	c6 05 46 3d 20 00 19 	movb   $0x19,0x203d46(%rip)        # 605368 <completed.7585+0x40>
  401622:	c6 05 40 3d 20 00 1a 	movb   $0x1a,0x203d40(%rip)        # 605369 <completed.7585+0x41>
  401629:	e8 92 f8 ff ff       	callq  400ec0 <rand@plt>
  40162e:	89 c1                	mov    %eax,%ecx
  401630:	41 bd 4f ec c4 4e    	mov    $0x4ec4ec4f,%r13d
  401636:	41 f7 ec             	imul   %r12d
  401639:	89 c8                	mov    %ecx,%eax
  40163b:	c1 f8 1f             	sar    $0x1f,%eax
  40163e:	c1 fa 03             	sar    $0x3,%edx
  401641:	89 d3                	mov    %edx,%ebx
  401643:	29 c3                	sub    %eax,%ebx
  401645:	6b db 1a             	imul   $0x1a,%ebx,%ebx
  401648:	29 d9                	sub    %ebx,%ecx
  40164a:	48 63 d9             	movslq %ecx,%rbx
  40164d:	e8 6e f8 ff ff       	callq  400ec0 <rand@plt>
  401652:	89 c1                	mov    %eax,%ecx
  401654:	41 f7 ec             	imul   %r12d
  401657:	89 c8                	mov    %ecx,%eax
  401659:	c1 f8 1f             	sar    $0x1f,%eax
  40165c:	c1 fa 03             	sar    $0x3,%edx
  40165f:	29 c2                	sub    %eax,%edx
  401661:	6b d2 1a             	imul   $0x1a,%edx,%edx
  401664:	29 d1                	sub    %edx,%ecx
  401666:	83 ed 01             	sub    $0x1,%ebp
  401669:	48 63 d1             	movslq %ecx,%rdx
  40166c:	0f b6 8b 50 53 60 00 	movzbl 0x605350(%rbx),%ecx
  401673:	0f b6 82 50 53 60 00 	movzbl 0x605350(%rdx),%eax
  40167a:	88 8a 50 53 60 00    	mov    %cl,0x605350(%rdx)
  401680:	88 83 50 53 60 00    	mov    %al,0x605350(%rbx)
  401686:	75 a1                	jne    401629 <phase4+0xda>
  401688:	e8 33 f8 ff ff       	callq  400ec0 <rand@plt>
  40168d:	89 c3                	mov    %eax,%ebx
  40168f:	e8 2c f8 ff ff       	callq  400ec0 <rand@plt>
  401694:	89 c1                	mov    %eax,%ecx
  401696:	89 d8                	mov    %ebx,%eax
  401698:	41 f7 ed             	imul   %r13d
  40169b:	89 d8                	mov    %ebx,%eax
  40169d:	c1 f8 1f             	sar    $0x1f,%eax
  4016a0:	c1 fa 03             	sar    $0x3,%edx
  4016a3:	29 c2                	sub    %eax,%edx
  4016a5:	6b c2 1a             	imul   $0x1a,%edx,%eax
  4016a8:	29 c3                	sub    %eax,%ebx
  4016aa:	89 c8                	mov    %ecx,%eax
  4016ac:	41 f7 ed             	imul   %r13d
  4016af:	89 c8                	mov    %ecx,%eax
  4016b1:	8d 34 9b             	lea    (%rbx,%rbx,4),%esi
  4016b4:	c1 f8 1f             	sar    $0x1f,%eax
  4016b7:	c1 fa 03             	sar    $0x3,%edx
  4016ba:	29 c2                	sub    %eax,%edx
  4016bc:	6b c2 1a             	imul   $0x1a,%edx,%eax
  4016bf:	29 c1                	sub    %eax,%ecx
  4016c1:	8d 04 0e             	lea    (%rsi,%rcx,1),%eax
  4016c4:	89 05 7a 3c 20 00    	mov    %eax,0x203c7a(%rip)        # 605344 <completed.7585+0x1c>
  4016ca:	48 83 c4 08          	add    $0x8,%rsp
  4016ce:	5b                   	pop    %rbx
  4016cf:	5d                   	pop    %rbp
  4016d0:	41 5c                	pop    %r12
  4016d2:	41 5d                	pop    %r13
  4016d4:	c3                   	retq   

00000000004016d5 <phase5>:
  4016d5:	41 55                	push   %r13
  4016d7:	41 54                	push   %r12
  4016d9:	55                   	push   %rbp
  4016da:	53                   	push   %rbx
  4016db:	48 83 ec 08          	sub    $0x8,%rsp
  4016df:	49 89 fc             	mov    %rdi,%r12
  4016e2:	e8 c6 fa ff ff       	callq  4011ad <string_length>
  4016e7:	83 f8 06             	cmp    $0x6,%eax
  4016ea:	74 05                	je     4016f1 <phase5+0x1c>
  4016ec:	e8 8f 07 00 00       	callq  401e80 <explode_bomb>
  4016f1:	bb 00 00 00 00       	mov    $0x0,%ebx
  4016f6:	bd 00 00 00 00       	mov    $0x0,%ebp
  4016fb:	eb 2d                	jmp    40172a <phase5+0x55>
  4016fd:	4c 63 eb             	movslq %ebx,%r13
  401700:	4d 01 e5             	add    %r12,%r13
  401703:	41 0f b6 45 00       	movzbl 0x0(%r13),%eax
  401708:	83 e8 61             	sub    $0x61,%eax
  40170b:	3c 19                	cmp    $0x19,%al
  40170d:	76 05                	jbe    401714 <phase5+0x3f>
  40170f:	e8 6c 07 00 00       	callq  401e80 <explode_bomb>
  401714:	41 0f be 45 00       	movsbl 0x0(%r13),%eax
  401719:	83 e8 61             	sub    $0x61,%eax
  40171c:	48 98                	cltq   
  40171e:	0f be 80 50 53 60 00 	movsbl 0x605350(%rax),%eax
  401725:	01 c5                	add    %eax,%ebp
  401727:	83 c3 01             	add    $0x1,%ebx
  40172a:	83 fb 05             	cmp    $0x5,%ebx
  40172d:	7e ce                	jle    4016fd <phase5+0x28>
  40172f:	3b 2d 0f 3c 20 00    	cmp    0x203c0f(%rip),%ebp        # 605344 <completed.7585+0x1c>
  401735:	74 05                	je     40173c <phase5+0x67>
  401737:	e8 44 07 00 00       	callq  401e80 <explode_bomb>
  40173c:	48 83 c4 08          	add    $0x8,%rsp
  401740:	5b                   	pop    %rbx
  401741:	5d                   	pop    %rbp
  401742:	41 5c                	pop    %r12
  401744:	41 5d                	pop    %r13
  401746:	c3                   	retq   
  401747:	48 83 ec 08          	sub    $0x8,%rsp
  40174b:	e8 70 f7 ff ff       	callq  400ec0 <rand@plt>
  401750:	25 ff ff 00 00       	and    $0xffff,%eax
  401755:	89 05 05 3a 20 00    	mov    %eax,0x203a05(%rip)        # 605160 <__dso_handle+0x18>
  40175b:	e8 60 f7 ff ff       	callq  400ec0 <rand@plt>
  401760:	25 ff ff 00 00       	and    $0xffff,%eax
  401765:	89 05 05 3a 20 00    	mov    %eax,0x203a05(%rip)        # 605170 <__dso_handle+0x28>
  40176b:	e8 50 f7 ff ff       	callq  400ec0 <rand@plt>
  401770:	25 ff ff 00 00       	and    $0xffff,%eax
  401775:	89 05 05 3a 20 00    	mov    %eax,0x203a05(%rip)        # 605180 <__dso_handle+0x38>
  40177b:	e8 40 f7 ff ff       	callq  400ec0 <rand@plt>
  401780:	25 ff ff 00 00       	and    $0xffff,%eax
  401785:	89 05 05 3a 20 00    	mov    %eax,0x203a05(%rip)        # 605190 <__dso_handle+0x48>
  40178b:	e8 30 f7 ff ff       	callq  400ec0 <rand@plt>
  401790:	25 ff ff 00 00       	and    $0xffff,%eax
  401795:	89 05 05 3a 20 00    	mov    %eax,0x203a05(%rip)        # 6051a0 <__dso_handle+0x58>
  40179b:	e8 20 f7 ff ff       	callq  400ec0 <rand@plt>
  4017a0:	25 ff ff 00 00       	and    $0xffff,%eax
  4017a5:	89 05 05 3a 20 00    	mov    %eax,0x203a05(%rip)        # 6051b0 <__dso_handle+0x68>
  4017ab:	48 83 c4 08          	add    $0x8,%rsp
  4017af:	c3                   	retq   

00000000004017b0 <phase6>:
  4017b0:	41 54                	push   %r12
  4017b2:	55                   	push   %rbp
  4017b3:	53                   	push   %rbx
  4017b4:	48 83 ec 60          	sub    $0x60,%rsp
  4017b8:	64 48 8b 04 25 28 00 	mov    %fs:0x28,%rax
  4017bf:	00 00 
  4017c1:	48 89 44 24 58       	mov    %rax,0x58(%rsp)
  4017c6:	31 c0                	xor    %eax,%eax
  4017c8:	48 89 e6             	mov    %rsp,%rsi
  4017cb:	e8 f0 06 00 00       	callq  401ec0 <read_six_numbers>
  4017d0:	bd 00 00 00 00       	mov    $0x0,%ebp
  4017d5:	eb 3a                	jmp    401811 <phase6+0x61>
  4017d7:	48 63 c5             	movslq %ebp,%rax
  4017da:	8b 04 84             	mov    (%rsp,%rax,4),%eax
  4017dd:	83 e8 01             	sub    $0x1,%eax
  4017e0:	83 f8 05             	cmp    $0x5,%eax
  4017e3:	76 05                	jbe    4017ea <phase6+0x3a>
  4017e5:	e8 96 06 00 00       	callq  401e80 <explode_bomb>
  4017ea:	44 8d 65 01          	lea    0x1(%rbp),%r12d
  4017ee:	44 89 e3             	mov    %r12d,%ebx
  4017f1:	eb 16                	jmp    401809 <phase6+0x59>
  4017f3:	48 63 c5             	movslq %ebp,%rax
  4017f6:	48 63 d3             	movslq %ebx,%rdx
  4017f9:	8b 3c 94             	mov    (%rsp,%rdx,4),%edi
  4017fc:	39 3c 84             	cmp    %edi,(%rsp,%rax,4)
  4017ff:	75 05                	jne    401806 <phase6+0x56>
  401801:	e8 7a 06 00 00       	callq  401e80 <explode_bomb>
  401806:	83 c3 01             	add    $0x1,%ebx
  401809:	83 fb 05             	cmp    $0x5,%ebx
  40180c:	7e e5                	jle    4017f3 <phase6+0x43>
  40180e:	44 89 e5             	mov    %r12d,%ebp
  401811:	83 fd 05             	cmp    $0x5,%ebp
  401814:	7e c1                	jle    4017d7 <phase6+0x27>
  401816:	be 00 00 00 00       	mov    $0x0,%esi
  40181b:	eb 23                	jmp    401840 <phase6+0x90>
  40181d:	48 8b 52 08          	mov    0x8(%rdx),%rdx
  401821:	83 c0 01             	add    $0x1,%eax
  401824:	eb 0a                	jmp    401830 <phase6+0x80>
  401826:	b8 01 00 00 00       	mov    $0x1,%eax
  40182b:	ba 60 51 60 00       	mov    $0x605160,%edx
  401830:	48 63 ce             	movslq %esi,%rcx
  401833:	3b 04 8c             	cmp    (%rsp,%rcx,4),%eax
  401836:	7c e5                	jl     40181d <phase6+0x6d>
  401838:	48 89 54 cc 20       	mov    %rdx,0x20(%rsp,%rcx,8)
  40183d:	83 c6 01             	add    $0x1,%esi
  401840:	83 fe 05             	cmp    $0x5,%esi
  401843:	7e e1                	jle    401826 <phase6+0x76>
  401845:	48 8b 5c 24 20       	mov    0x20(%rsp),%rbx
  40184a:	48 89 d9             	mov    %rbx,%rcx
  40184d:	b8 01 00 00 00       	mov    $0x1,%eax
  401852:	eb 12                	jmp    401866 <phase6+0xb6>
  401854:	48 63 d0             	movslq %eax,%rdx
  401857:	48 8b 54 d4 20       	mov    0x20(%rsp,%rdx,8),%rdx
  40185c:	48 89 51 08          	mov    %rdx,0x8(%rcx)
  401860:	83 c0 01             	add    $0x1,%eax
  401863:	48 89 d1             	mov    %rdx,%rcx
  401866:	83 f8 05             	cmp    $0x5,%eax
  401869:	7e e9                	jle    401854 <phase6+0xa4>
  40186b:	48 c7 41 08 00 00 00 	movq   $0x0,0x8(%rcx)
  401872:	00 
  401873:	bd 00 00 00 00       	mov    $0x0,%ebp
  401878:	eb 16                	jmp    401890 <phase6+0xe0>
  40187a:	48 8b 43 08          	mov    0x8(%rbx),%rax
  40187e:	8b 00                	mov    (%rax),%eax
  401880:	39 03                	cmp    %eax,(%rbx)
  401882:	7e 05                	jle    401889 <phase6+0xd9>
  401884:	e8 f7 05 00 00       	callq  401e80 <explode_bomb>
  401889:	48 8b 5b 08          	mov    0x8(%rbx),%rbx
  40188d:	83 c5 01             	add    $0x1,%ebp
  401890:	83 fd 04             	cmp    $0x4,%ebp
  401893:	7e e5                	jle    40187a <phase6+0xca>
  401895:	48 8b 44 24 58       	mov    0x58(%rsp),%rax
  40189a:	64 48 33 04 25 28 00 	xor    %fs:0x28,%rax
  4018a1:	00 00 
  4018a3:	74 05                	je     4018aa <phase6+0xfa>
  4018a5:	e8 96 f4 ff ff       	callq  400d40 <__stack_chk_fail@plt>
  4018aa:	48 83 c4 60          	add    $0x60,%rsp
  4018ae:	5b                   	pop    %rbx
  4018af:	5d                   	pop    %rbp
  4018b0:	41 5c                	pop    %r12
  4018b2:	c3                   	retq   
  4018b3:	48 83 ec 08          	sub    $0x8,%rsp
  4018b7:	e8 04 f6 ff ff       	callq  400ec0 <rand@plt>
  4018bc:	ba 5b f0 8d 21       	mov    $0x218df05b,%edx
  4018c1:	89 c1                	mov    %eax,%ecx
  4018c3:	f7 ea                	imul   %edx
  4018c5:	89 c8                	mov    %ecx,%eax
  4018c7:	c1 f8 1f             	sar    $0x1f,%eax
  4018ca:	c1 fa 12             	sar    $0x12,%edx
  4018cd:	29 c2                	sub    %eax,%edx
  4018cf:	69 d2 7f 84 1e 00    	imul   $0x1e847f,%edx,%edx
  4018d5:	29 d1                	sub    %edx,%ecx
  4018d7:	81 e9 3f 42 0f 00    	sub    $0xf423f,%ecx
  4018dd:	89 0d 5d 3a 20 00    	mov    %ecx,0x203a5d(%rip)        # 605340 <completed.7585+0x18>
  4018e3:	48 83 c4 08          	add    $0x8,%rsp
  4018e7:	c3                   	retq   

00000000004018e8 <secret_phase>:
  4018e8:	53                   	push   %rbx
  4018e9:	48 83 ec 20          	sub    $0x20,%rsp
  4018ed:	64 48 8b 04 25 28 00 	mov    %fs:0x28,%rax
  4018f4:	00 00 
  4018f6:	48 89 44 24 18       	mov    %rax,0x18(%rsp)
  4018fb:	31 c0                	xor    %eax,%eax
  4018fd:	e8 0e 07 00 00       	callq  402010 <read_line>
  401902:	ba 00 00 00 00       	mov    $0x0,%edx
  401907:	be 00 00 00 00       	mov    $0x0,%esi
  40190c:	48 89 c7             	mov    %rax,%rdi
  40190f:	e8 5c f5 ff ff       	callq  400e70 <strtoul@plt>
  401914:	89 44 24 10          	mov    %eax,0x10(%rsp)
  401918:	89 c7                	mov    %eax,%edi
  40191a:	81 e7 00 00 80 7f    	and    $0x7f800000,%edi
  401920:	c1 ef 17             	shr    $0x17,%edi
  401923:	89 c6                	mov    %eax,%esi
  401925:	81 e6 ff ff 7f 00    	and    $0x7fffff,%esi
  40192b:	c1 f8 1f             	sar    $0x1f,%eax
  40192e:	83 ff 7e             	cmp    $0x7e,%edi
  401931:	76 07                	jbe    40193a <secret_phase+0x52>
  401933:	ba ff ff ff ff       	mov    $0xffffffff,%edx
  401938:	eb 05                	jmp    40193f <secret_phase+0x57>
  40193a:	ba 00 00 00 00       	mov    $0x0,%edx
  40193f:	81 ce 00 00 80 00    	or     $0x800000,%esi
  401945:	b9 96 00 00 00       	mov    $0x96,%ecx
  40194a:	29 f9                	sub    %edi,%ecx
  40194c:	d3 ee                	shr    %cl,%esi
  40194e:	21 f2                	and    %esi,%edx
  401950:	89 d3                	mov    %edx,%ebx
  401952:	f7 db                	neg    %ebx
  401954:	31 d3                	xor    %edx,%ebx
  401956:	21 d8                	and    %ebx,%eax
  401958:	31 d0                	xor    %edx,%eax
  40195a:	89 c3                	mov    %eax,%ebx
  40195c:	3b 05 de 39 20 00    	cmp    0x2039de(%rip),%eax        # 605340 <completed.7585+0x18>
  401962:	74 05                	je     401969 <secret_phase+0x81>
  401964:	e8 17 05 00 00       	callq  401e80 <explode_bomb>
  401969:	89 5c 24 0c          	mov    %ebx,0xc(%rsp)
  40196d:	db 44 24 0c          	fildl  0xc(%rsp)
  401971:	d9 5c 24 14          	fstps  0x14(%rsp)
  401975:	ba 04 00 00 00       	mov    $0x4,%edx
  40197a:	48 8d 74 24 10       	lea    0x10(%rsp),%rsi
  40197f:	48 8d 7c 24 14       	lea    0x14(%rsp),%rdi
  401984:	e8 27 f4 ff ff       	callq  400db0 <memcmp@plt>
  401989:	85 c0                	test   %eax,%eax
  40198b:	74 05                	je     401992 <secret_phase+0xaa>
  40198d:	e8 ee 04 00 00       	callq  401e80 <explode_bomb>
  401992:	48 8b 44 24 18       	mov    0x18(%rsp),%rax
  401997:	64 48 33 04 25 28 00 	xor    %fs:0x28,%rax
  40199e:	00 00 
  4019a0:	74 05                	je     4019a7 <secret_phase+0xbf>
  4019a2:	e8 99 f3 ff ff       	callq  400d40 <__stack_chk_fail@plt>
  4019a7:	48 83 c4 20          	add    $0x20,%rsp
  4019ab:	5b                   	pop    %rbx
  4019ac:	c3                   	retq   
  4019ad:	0f 1f 00             	nopl   (%rax)

00000000004019b0 <test_secret_phrase>:
  4019b0:	89 f8                	mov    %edi,%eax
  4019b2:	83 e0 fb             	and    $0xfffffffb,%eax
  4019b5:	83 f8 01             	cmp    $0x1,%eax
  4019b8:	0f 84 4a 01 00 00    	je     401b08 <test_secret_phrase+0x158>
  4019be:	41 55                	push   %r13
  4019c0:	41 54                	push   %r12
  4019c2:	55                   	push   %rbp
  4019c3:	53                   	push   %rbx
  4019c4:	8d 5f ff             	lea    -0x1(%rdi),%ebx
  4019c7:	48 83 ec 08          	sub    $0x8,%rsp
  4019cb:	83 fb 06             	cmp    $0x6,%ebx
  4019ce:	74 71                	je     401a41 <test_secret_phrase+0x91>
  4019d0:	83 ef 03             	sub    $0x3,%edi
  4019d3:	83 ff 01             	cmp    $0x1,%edi
  4019d6:	0f 86 e4 00 00 00    	jbe    401ac0 <test_secret_phrase+0x110>
  4019dc:	48 63 db             	movslq %ebx,%rbx
  4019df:	48 8d 04 9b          	lea    (%rbx,%rbx,4),%rax
  4019e3:	48 8d 04 80          	lea    (%rax,%rax,4),%rax
  4019e7:	48 8d 2c 85 80 54 60 	lea    0x605480(,%rax,4),%rbp
  4019ee:	00 
  4019ef:	48 89 ef             	mov    %rbp,%rdi
  4019f2:	e8 39 f3 ff ff       	callq  400d30 <strlen@plt>
  4019f7:	48 8d 78 04          	lea    0x4(%rax),%rdi
  4019fb:	48 89 c3             	mov    %rax,%rbx
  4019fe:	e8 0d f4 ff ff       	callq  400e10 <malloc@plt>
  401a03:	48 8d 53 01          	lea    0x1(%rbx),%rdx
  401a07:	48 89 ee             	mov    %rbp,%rsi
  401a0a:	48 89 c7             	mov    %rax,%rdi
  401a0d:	bd 06 00 00 00       	mov    $0x6,%ebp
  401a12:	49 89 c4             	mov    %rax,%r12
  401a15:	e8 e6 f3 ff ff       	callq  400e00 <memcpy@plt>
  401a1a:	4c 89 e3             	mov    %r12,%rbx
  401a1d:	eb 10                	jmp    401a2f <test_secret_phrase+0x7f>
  401a1f:	90                   	nop
  401a20:	83 ed 01             	sub    $0x1,%ebp
  401a23:	48 8d 58 01          	lea    0x1(%rax),%rbx
  401a27:	8d 45 01             	lea    0x1(%rbp),%eax
  401a2a:	83 f8 01             	cmp    $0x1,%eax
  401a2d:	7e 21                	jle    401a50 <test_secret_phrase+0xa0>
  401a2f:	be 20 00 00 00       	mov    $0x20,%esi
  401a34:	48 89 df             	mov    %rbx,%rdi
  401a37:	e8 14 f3 ff ff       	callq  400d50 <strchr@plt>
  401a3c:	48 85 c0             	test   %rax,%rax
  401a3f:	75 df                	jne    401a20 <test_secret_phrase+0x70>
  401a41:	31 c0                	xor    %eax,%eax
  401a43:	48 83 c4 08          	add    $0x8,%rsp
  401a47:	5b                   	pop    %rbx
  401a48:	5d                   	pop    %rbp
  401a49:	41 5c                	pop    %r12
  401a4b:	41 5d                	pop    %r13
  401a4d:	c3                   	retq   
  401a4e:	66 90                	xchg   %ax,%ax
  401a50:	be 20 00 00 00       	mov    $0x20,%esi
  401a55:	48 89 df             	mov    %rbx,%rdi
  401a58:	e8 f3 f2 ff ff       	callq  400d50 <strchr@plt>
  401a5d:	48 85 c0             	test   %rax,%rax
  401a60:	74 03                	je     401a65 <test_secret_phrase+0xb5>
  401a62:	c6 00 00             	movb   $0x0,(%rax)
  401a65:	48 89 df             	mov    %rbx,%rdi
  401a68:	e8 c3 f2 ff ff       	callq  400d30 <strlen@plt>
  401a6d:	48 8d 78 04          	lea    0x4(%rax),%rdi
  401a71:	48 89 c5             	mov    %rax,%rbp
  401a74:	e8 97 f3 ff ff       	callq  400e10 <malloc@plt>
  401a79:	48 8d 55 01          	lea    0x1(%rbp),%rdx
  401a7d:	48 89 de             	mov    %rbx,%rsi
  401a80:	48 89 c7             	mov    %rax,%rdi
  401a83:	49 89 c5             	mov    %rax,%r13
  401a86:	e8 75 f3 ff ff       	callq  400e00 <memcpy@plt>
  401a8b:	4c 89 e7             	mov    %r12,%rdi
  401a8e:	e8 4d f2 ff ff       	callq  400ce0 <free@plt>
  401a93:	4c 89 ef             	mov    %r13,%rdi
  401a96:	be c0 39 40 00       	mov    $0x4039c0,%esi
  401a9b:	e8 22 f7 ff ff       	callq  4011c2 <strings_not_equal>
  401aa0:	85 c0                	test   %eax,%eax
  401aa2:	4c 89 ef             	mov    %r13,%rdi
  401aa5:	75 64                	jne    401b0b <test_secret_phrase+0x15b>
  401aa7:	e8 34 f2 ff ff       	callq  400ce0 <free@plt>
  401aac:	48 83 c4 08          	add    $0x8,%rsp
  401ab0:	b8 01 00 00 00       	mov    $0x1,%eax
  401ab5:	5b                   	pop    %rbx
  401ab6:	5d                   	pop    %rbp
  401ab7:	41 5c                	pop    %r12
  401ab9:	41 5d                	pop    %r13
  401abb:	c3                   	retq   
  401abc:	0f 1f 40 00          	nopl   0x0(%rax)
  401ac0:	48 63 c3             	movslq %ebx,%rax
  401ac3:	48 8d 04 80          	lea    (%rax,%rax,4),%rax
  401ac7:	48 8d 04 80          	lea    (%rax,%rax,4),%rax
  401acb:	4c 8d 2c 85 80 54 60 	lea    0x605480(,%rax,4),%r13
  401ad2:	00 
  401ad3:	4c 89 ef             	mov    %r13,%rdi
  401ad6:	e8 55 f2 ff ff       	callq  400d30 <strlen@plt>
  401adb:	48 8d 78 04          	lea    0x4(%rax),%rdi
  401adf:	48 89 c5             	mov    %rax,%rbp
  401ae2:	e8 29 f3 ff ff       	callq  400e10 <malloc@plt>
  401ae7:	48 8d 55 01          	lea    0x1(%rbp),%rdx
  401aeb:	4c 89 ee             	mov    %r13,%rsi
  401aee:	48 89 c7             	mov    %rax,%rdi
  401af1:	bd 05 00 00 00       	mov    $0x5,%ebp
  401af6:	49 89 c4             	mov    %rax,%r12
  401af9:	29 dd                	sub    %ebx,%ebp
  401afb:	e8 00 f3 ff ff       	callq  400e00 <memcpy@plt>
  401b00:	e9 15 ff ff ff       	jmpq   401a1a <test_secret_phrase+0x6a>
  401b05:	0f 1f 00             	nopl   (%rax)
  401b08:	31 c0                	xor    %eax,%eax
  401b0a:	c3                   	retq   
  401b0b:	e8 d0 f1 ff ff       	callq  400ce0 <free@plt>
  401b10:	b8 ff ff ff ff       	mov    $0xffffffff,%eax
  401b15:	e9 29 ff ff ff       	jmpq   401a43 <test_secret_phrase+0x93>
  401b1a:	66 0f 1f 44 00 00    	nopw   0x0(%rax,%rax,1)

0000000000401b20 <invalid_phase>:
  401b20:	48 89 fa             	mov    %rdi,%rdx
  401b23:	48 83 ec 08          	sub    $0x8,%rsp
  401b27:	bf 01 00 00 00       	mov    $0x1,%edi
  401b2c:	be d8 39 40 00       	mov    $0x4039d8,%esi
  401b31:	31 c0                	xor    %eax,%eax
  401b33:	e8 18 f3 ff ff       	callq  400e50 <__printf_chk@plt>
  401b38:	bf 08 00 00 00       	mov    $0x8,%edi
  401b3d:	e8 3e f3 ff ff       	callq  400e80 <exit@plt>
  401b42:	0f 1f 40 00          	nopl   0x0(%rax)
  401b46:	66 2e 0f 1f 84 00 00 	nopw   %cs:0x0(%rax,%rax,1)
  401b4d:	00 00 00 
  401b50:	55                   	push   %rbp
  401b51:	53                   	push   %rbx
  401b52:	be a0 1f 40 00       	mov    $0x401fa0,%esi
  401b57:	bf 02 00 00 00       	mov    $0x2,%edi
  401b5c:	48 81 ec 18 20 00 00 	sub    $0x2018,%rsp
  401b63:	64 48 8b 04 25 28 00 	mov    %fs:0x28,%rax
  401b6a:	00 00 
  401b6c:	48 89 84 24 08 20 00 	mov    %rax,0x2008(%rsp)
  401b73:	00 
  401b74:	31 c0                	xor    %eax,%eax
  401b76:	e8 55 f2 ff ff       	callq  400dd0 <signal@plt>
  401b7b:	be a0 1f 40 00       	mov    $0x401fa0,%esi
  401b80:	bf 09 00 00 00       	mov    $0x9,%edi
  401b85:	e8 46 f2 ff ff       	callq  400dd0 <signal@plt>
  401b8a:	be 10 1f 40 00       	mov    $0x401f10,%esi
  401b8f:	bf 0a 00 00 00       	mov    $0xa,%edi
  401b94:	e8 37 f2 ff ff       	callq  400dd0 <signal@plt>
  401b99:	be 00 1f 40 00       	mov    $0x401f00,%esi
  401b9e:	bf 0b 00 00 00       	mov    $0xb,%edi
  401ba3:	e8 28 f2 ff ff       	callq  400dd0 <signal@plt>
  401ba8:	be 00 1f 40 00       	mov    $0x401f00,%esi
  401bad:	bf 04 00 00 00       	mov    $0x4,%edi
  401bb2:	e8 19 f2 ff ff       	callq  400dd0 <signal@plt>
  401bb7:	48 89 e7             	mov    %rsp,%rdi
  401bba:	e8 91 11 00 00       	callq  402d50 <init_driver>
  401bbf:	85 c0                	test   %eax,%eax
  401bc1:	0f 88 d1 00 00 00    	js     401c98 <invalid_phase+0x178>
  401bc7:	bf f1 52 60 00       	mov    $0x6052f1,%edi
  401bcc:	e8 5f f1 ff ff       	callq  400d30 <strlen@plt>
  401bd1:	bf e0 52 60 00       	mov    $0x6052e0,%edi
  401bd6:	48 89 c5             	mov    %rax,%rbp
  401bd9:	89 c3                	mov    %eax,%ebx
  401bdb:	e8 50 f1 ff ff       	callq  400d30 <strlen@plt>
  401be0:	85 ed                	test   %ebp,%ebp
  401be2:	41 89 c0             	mov    %eax,%r8d
  401be5:	0f 8e a1 00 00 00    	jle    401c8c <invalid_phase+0x16c>
  401beb:	31 d2                	xor    %edx,%edx
  401bed:	be 05 15 00 00       	mov    $0x1505,%esi
  401bf2:	66 0f 1f 44 00 00    	nopw   0x0(%rax,%rax,1)
  401bf8:	0f be 8a f1 52 60 00 	movsbl 0x6052f1(%rdx),%ecx
  401bff:	89 f7                	mov    %esi,%edi
  401c01:	48 83 c2 01          	add    $0x1,%rdx
  401c05:	c1 e7 05             	shl    $0x5,%edi
  401c08:	01 f9                	add    %edi,%ecx
  401c0a:	01 ce                	add    %ecx,%esi
  401c0c:	39 d3                	cmp    %edx,%ebx
  401c0e:	7f e8                	jg     401bf8 <invalid_phase+0xd8>
  401c10:	8d 3c f6             	lea    (%rsi,%rsi,8),%edi
  401c13:	85 c0                	test   %eax,%eax
  401c15:	7e 22                	jle    401c39 <invalid_phase+0x119>
  401c17:	31 c0                	xor    %eax,%eax
  401c19:	0f 1f 80 00 00 00 00 	nopl   0x0(%rax)
  401c20:	0f be 90 e0 52 60 00 	movsbl 0x6052e0(%rax),%edx
  401c27:	89 f9                	mov    %edi,%ecx
  401c29:	48 83 c0 01          	add    $0x1,%rax
  401c2d:	c1 e1 05             	shl    $0x5,%ecx
  401c30:	01 ca                	add    %ecx,%edx
  401c32:	01 d7                	add    %edx,%edi
  401c34:	41 39 c0             	cmp    %eax,%r8d
  401c37:	7f e7                	jg     401c20 <invalid_phase+0x100>
  401c39:	e8 62 f1 ff ff       	callq  400da0 <srand@plt>
  401c3e:	31 c0                	xor    %eax,%eax
  401c40:	e8 ca f5 ff ff       	callq  40120f <strings_not_equal+0x4d>
  401c45:	31 c0                	xor    %eax,%eax
  401c47:	e8 22 f6 ff ff       	callq  40126e <phase1+0x1c>
  401c4c:	31 c0                	xor    %eax,%eax
  401c4e:	e8 bb f6 ff ff       	callq  40130e <phase2+0x6f>
  401c53:	31 c0                	xor    %eax,%eax
  401c55:	e8 c7 f8 ff ff       	callq  401521 <fun4+0x3a>
  401c5a:	31 c0                	xor    %eax,%eax
  401c5c:	e8 5e f9 ff ff       	callq  4015bf <phase4+0x70>
  401c61:	31 c0                	xor    %eax,%eax
  401c63:	e8 df fa ff ff       	callq  401747 <phase5+0x72>
  401c68:	31 c0                	xor    %eax,%eax
  401c6a:	e8 44 fc ff ff       	callq  4018b3 <phase6+0x103>
  401c6f:	48 8b 84 24 08 20 00 	mov    0x2008(%rsp),%rax
  401c76:	00 
  401c77:	64 48 33 04 25 28 00 	xor    %fs:0x28,%rax
  401c7e:	00 00 
  401c80:	75 11                	jne    401c93 <invalid_phase+0x173>
  401c82:	48 81 c4 18 20 00 00 	add    $0x2018,%rsp
  401c89:	5b                   	pop    %rbx
  401c8a:	5d                   	pop    %rbp
  401c8b:	c3                   	retq   
  401c8c:	bf 2d bd 00 00       	mov    $0xbd2d,%edi
  401c91:	eb 80                	jmp    401c13 <invalid_phase+0xf3>
  401c93:	e8 a8 f0 ff ff       	callq  400d40 <__stack_chk_fail@plt>
  401c98:	bf 01 00 00 00       	mov    $0x1,%edi
  401c9d:	48 89 e2             	mov    %rsp,%rdx
  401ca0:	be e9 39 40 00       	mov    $0x4039e9,%esi
  401ca5:	31 c0                	xor    %eax,%eax
  401ca7:	e8 a4 f1 ff ff       	callq  400e50 <__printf_chk@plt>
  401cac:	bf 08 00 00 00       	mov    $0x8,%edi
  401cb1:	e8 ca f1 ff ff       	callq  400e80 <exit@plt>
  401cb6:	66 2e 0f 1f 84 00 00 	nopw   %cs:0x0(%rax,%rax,1)
  401cbd:	00 00 00 
  401cc0:	55                   	push   %rbp
  401cc1:	53                   	push   %rbx
  401cc2:	bf f1 52 60 00       	mov    $0x6052f1,%edi
  401cc7:	48 83 ec 08          	sub    $0x8,%rsp
  401ccb:	e8 60 f0 ff ff       	callq  400d30 <strlen@plt>
  401cd0:	bf e0 52 60 00       	mov    $0x6052e0,%edi
  401cd5:	48 89 c5             	mov    %rax,%rbp
  401cd8:	89 c3                	mov    %eax,%ebx
  401cda:	e8 51 f0 ff ff       	callq  400d30 <strlen@plt>
  401cdf:	85 ed                	test   %ebp,%ebp
  401ce1:	41 89 c0             	mov    %eax,%r8d
  401ce4:	0f 8e 8b 00 00 00    	jle    401d75 <invalid_phase+0x255>
  401cea:	31 d2                	xor    %edx,%edx
  401cec:	be 05 15 00 00       	mov    $0x1505,%esi
  401cf1:	0f 1f 80 00 00 00 00 	nopl   0x0(%rax)
  401cf8:	0f be 8a f1 52 60 00 	movsbl 0x6052f1(%rdx),%ecx
  401cff:	89 f7                	mov    %esi,%edi
  401d01:	48 83 c2 01          	add    $0x1,%rdx
  401d05:	c1 e7 05             	shl    $0x5,%edi
  401d08:	01 f9                	add    %edi,%ecx
  401d0a:	01 ce                	add    %ecx,%esi
  401d0c:	39 d3                	cmp    %edx,%ebx
  401d0e:	7f e8                	jg     401cf8 <invalid_phase+0x1d8>
  401d10:	8d 3c f6             	lea    (%rsi,%rsi,8),%edi
  401d13:	85 c0                	test   %eax,%eax
  401d15:	7e 22                	jle    401d39 <invalid_phase+0x219>
  401d17:	31 c0                	xor    %eax,%eax
  401d19:	0f 1f 80 00 00 00 00 	nopl   0x0(%rax)
  401d20:	0f be 90 e0 52 60 00 	movsbl 0x6052e0(%rax),%edx
  401d27:	89 f9                	mov    %edi,%ecx
  401d29:	48 83 c0 01          	add    $0x1,%rax
  401d2d:	c1 e1 05             	shl    $0x5,%ecx
  401d30:	01 ca                	add    %ecx,%edx
  401d32:	01 d7                	add    %edx,%edi
  401d34:	41 39 c0             	cmp    %eax,%r8d
  401d37:	7f e7                	jg     401d20 <invalid_phase+0x200>
  401d39:	e8 62 f0 ff ff       	callq  400da0 <srand@plt>
  401d3e:	31 c0                	xor    %eax,%eax
  401d40:	e8 ca f4 ff ff       	callq  40120f <strings_not_equal+0x4d>
  401d45:	31 c0                	xor    %eax,%eax
  401d47:	e8 22 f5 ff ff       	callq  40126e <phase1+0x1c>
  401d4c:	31 c0                	xor    %eax,%eax
  401d4e:	e8 bb f5 ff ff       	callq  40130e <phase2+0x6f>
  401d53:	31 c0                	xor    %eax,%eax
  401d55:	e8 c7 f7 ff ff       	callq  401521 <fun4+0x3a>
  401d5a:	31 c0                	xor    %eax,%eax
  401d5c:	e8 5e f8 ff ff       	callq  4015bf <phase4+0x70>
  401d61:	31 c0                	xor    %eax,%eax
  401d63:	e8 df f9 ff ff       	callq  401747 <phase5+0x72>
  401d68:	48 83 c4 08          	add    $0x8,%rsp
  401d6c:	31 c0                	xor    %eax,%eax
  401d6e:	5b                   	pop    %rbx
  401d6f:	5d                   	pop    %rbp
  401d70:	e9 3e fb ff ff       	jmpq   4018b3 <phase6+0x103>
  401d75:	bf 2d bd 00 00       	mov    $0xbd2d,%edi
  401d7a:	eb 97                	jmp    401d13 <invalid_phase+0x1f3>
  401d7c:	0f 1f 40 00          	nopl   0x0(%rax)
  401d80:	41 54                	push   %r12
  401d82:	55                   	push   %rbp
  401d83:	53                   	push   %rbx
  401d84:	89 fb                	mov    %edi,%ebx
  401d86:	48 81 ec 10 40 00 00 	sub    $0x4010,%rsp
  401d8d:	8b 2d cd 36 20 00    	mov    0x2036cd(%rip),%ebp        # 605460 <num_input_strings>
  401d93:	64 48 8b 04 25 28 00 	mov    %fs:0x28,%rax
  401d9a:	00 00 
  401d9c:	48 89 84 24 08 40 00 	mov    %rax,0x4008(%rsp)
  401da3:	00 
  401da4:	31 c0                	xor    %eax,%eax
  401da6:	8d 45 ff             	lea    -0x1(%rbp),%eax
  401da9:	48 98                	cltq   
  401dab:	48 8d 04 80          	lea    (%rax,%rax,4),%rax
  401daf:	48 8d 04 80          	lea    (%rax,%rax,4),%rax
  401db3:	4c 8d 24 85 80 54 60 	lea    0x605480(,%rax,4),%r12
  401dba:	00 
  401dbb:	4c 89 e7             	mov    %r12,%rdi
  401dbe:	e8 6d ef ff ff       	callq  400d30 <strlen@plt>
  401dc3:	48 83 c0 64          	add    $0x64,%rax
  401dc7:	48 3d 00 20 00 00    	cmp    $0x2000,%rax
  401dcd:	77 79                	ja     401e48 <invalid_phase+0x328>
  401dcf:	41 54                	push   %r12
  401dd1:	55                   	push   %rbp
  401dd2:	85 db                	test   %ebx,%ebx
  401dd4:	44 8b 05 1d 35 20 00 	mov    0x20351d(%rip),%r8d        # 6052f8 <bomb_id>
  401ddb:	b8 03 3a 40 00       	mov    $0x403a03,%eax
  401de0:	41 b9 0b 3a 40 00    	mov    $0x403a0b,%r9d
  401de6:	48 8d 7c 24 10       	lea    0x10(%rsp),%rdi
  401deb:	4c 0f 45 c8          	cmovne %rax,%r9
  401def:	b9 14 3a 40 00       	mov    $0x403a14,%ecx
  401df4:	ba 00 20 00 00       	mov    $0x2000,%edx
  401df9:	be 01 00 00 00       	mov    $0x1,%esi
  401dfe:	31 c0                	xor    %eax,%eax
  401e00:	e8 db f0 ff ff       	callq  400ee0 <__sprintf_chk@plt>
  401e05:	4c 8d 84 24 10 20 00 	lea    0x2010(%rsp),%r8
  401e0c:	00 
  401e0d:	48 8d 54 24 10       	lea    0x10(%rsp),%rdx
  401e12:	31 c9                	xor    %ecx,%ecx
  401e14:	be e0 52 60 00       	mov    $0x6052e0,%esi
  401e19:	bf f1 52 60 00       	mov    $0x6052f1,%edi
  401e1e:	e8 2d 11 00 00       	callq  402f50 <init_driver+0x200>
  401e23:	85 c0                	test   %eax,%eax
  401e25:	5a                   	pop    %rdx
  401e26:	59                   	pop    %rcx
  401e27:	78 3f                	js     401e68 <invalid_phase+0x348>
  401e29:	48 8b 84 24 08 40 00 	mov    0x4008(%rsp),%rax
  401e30:	00 
  401e31:	64 48 33 04 25 28 00 	xor    %fs:0x28,%rax
  401e38:	00 00 
  401e3a:	75 27                	jne    401e63 <invalid_phase+0x343>
  401e3c:	48 81 c4 10 40 00 00 	add    $0x4010,%rsp
  401e43:	5b                   	pop    %rbx
  401e44:	5d                   	pop    %rbp
  401e45:	41 5c                	pop    %r12
  401e47:	c3                   	retq   
  401e48:	bf 01 00 00 00       	mov    $0x1,%edi
  401e4d:	be d8 3a 40 00       	mov    $0x403ad8,%esi
  401e52:	31 c0                	xor    %eax,%eax
  401e54:	e8 f7 ef ff ff       	callq  400e50 <__printf_chk@plt>
  401e59:	bf 08 00 00 00       	mov    $0x8,%edi
  401e5e:	e8 1d f0 ff ff       	callq  400e80 <exit@plt>
  401e63:	e8 d8 ee ff ff       	callq  400d40 <__stack_chk_fail@plt>
  401e68:	48 8d bc 24 00 20 00 	lea    0x2000(%rsp),%rdi
  401e6f:	00 
  401e70:	e8 9b ee ff ff       	callq  400d10 <puts@plt>
  401e75:	31 ff                	xor    %edi,%edi
  401e77:	e8 04 f0 ff ff       	callq  400e80 <exit@plt>
  401e7c:	0f 1f 40 00          	nopl   0x0(%rax)

0000000000401e80 <explode_bomb>:
  401e80:	48 83 ec 08          	sub    $0x8,%rsp
  401e84:	bf 20 3a 40 00       	mov    $0x403a20,%edi
  401e89:	e8 82 ee ff ff       	callq  400d10 <puts@plt>
  401e8e:	bf 29 3a 40 00       	mov    $0x403a29,%edi
  401e93:	e8 78 ee ff ff       	callq  400d10 <puts@plt>
  401e98:	31 ff                	xor    %edi,%edi
  401e9a:	e8 e1 fe ff ff       	callq  401d80 <invalid_phase+0x260>
  401e9f:	bf 00 3b 40 00       	mov    $0x403b00,%edi
  401ea4:	e8 67 ee ff ff       	callq  400d10 <puts@plt>
  401ea9:	bf 08 00 00 00       	mov    $0x8,%edi
  401eae:	e8 cd ef ff ff       	callq  400e80 <exit@plt>
  401eb3:	0f 1f 00             	nopl   (%rax)
  401eb6:	66 2e 0f 1f 84 00 00 	nopw   %cs:0x0(%rax,%rax,1)
  401ebd:	00 00 00 

0000000000401ec0 <read_six_numbers>:
  401ec0:	48 8d 46 14          	lea    0x14(%rsi),%rax
  401ec4:	48 83 ec 08          	sub    $0x8,%rsp
  401ec8:	48 8d 4e 04          	lea    0x4(%rsi),%rcx
  401ecc:	4c 8d 4e 0c          	lea    0xc(%rsi),%r9
  401ed0:	4c 8d 46 08          	lea    0x8(%rsi),%r8
  401ed4:	48 89 f2             	mov    %rsi,%rdx
  401ed7:	50                   	push   %rax
  401ed8:	48 8d 46 10          	lea    0x10(%rsi),%rax
  401edc:	be 40 3a 40 00       	mov    $0x403a40,%esi
  401ee1:	50                   	push   %rax
  401ee2:	31 c0                	xor    %eax,%eax
  401ee4:	e8 47 ef ff ff       	callq  400e30 <__isoc99_sscanf@plt>
  401ee9:	83 f8 05             	cmp    $0x5,%eax
  401eec:	5a                   	pop    %rdx
  401eed:	59                   	pop    %rcx
  401eee:	7e 05                	jle    401ef5 <read_six_numbers+0x35>
  401ef0:	48 83 c4 08          	add    $0x8,%rsp
  401ef4:	c3                   	retq   
  401ef5:	e8 86 ff ff ff       	callq  401e80 <explode_bomb>
  401efa:	66 0f 1f 44 00 00    	nopw   0x0(%rax,%rax,1)
  401f00:	48 83 ec 08          	sub    $0x8,%rsp
  401f04:	e8 77 ff ff ff       	callq  401e80 <explode_bomb>
  401f09:	0f 1f 80 00 00 00 00 	nopl   0x0(%rax)

0000000000401f10 <sigusr1_handler>:
  401f10:	8b 05 52 35 20 00    	mov    0x203552(%rip),%eax        # 605468 <count.5639>
  401f16:	83 c0 01             	add    $0x1,%eax
  401f19:	83 f8 01             	cmp    $0x1,%eax
  401f1c:	89 05 46 35 20 00    	mov    %eax,0x203546(%rip)        # 605468 <count.5639>
  401f22:	74 1c                	je     401f40 <sigusr1_handler+0x30>
  401f24:	83 f8 02             	cmp    $0x2,%eax
  401f27:	74 27                	je     401f50 <sigusr1_handler+0x40>
  401f29:	83 f8 03             	cmp    $0x3,%eax
  401f2c:	74 32                	je     401f60 <sigusr1_handler+0x50>
  401f2e:	83 f8 04             	cmp    $0x4,%eax
  401f31:	74 3d                	je     401f70 <sigusr1_handler+0x60>
  401f33:	7f 45                	jg     401f7a <sigusr1_handler+0x6a>
  401f35:	f3 c3                	repz retq 
  401f37:	66 0f 1f 84 00 00 00 	nopw   0x0(%rax,%rax,1)
  401f3e:	00 00 
  401f40:	bf 28 3b 40 00       	mov    $0x403b28,%edi
  401f45:	e9 c6 ed ff ff       	jmpq   400d10 <puts@plt>
  401f4a:	66 0f 1f 44 00 00    	nopw   0x0(%rax,%rax,1)
  401f50:	bf 78 3b 40 00       	mov    $0x403b78,%edi
  401f55:	e9 b6 ed ff ff       	jmpq   400d10 <puts@plt>
  401f5a:	66 0f 1f 44 00 00    	nopw   0x0(%rax,%rax,1)
  401f60:	bf c8 3b 40 00       	mov    $0x403bc8,%edi
  401f65:	e9 a6 ed ff ff       	jmpq   400d10 <puts@plt>
  401f6a:	66 0f 1f 44 00 00    	nopw   0x0(%rax,%rax,1)
  401f70:	bf 10 3c 40 00       	mov    $0x403c10,%edi
  401f75:	e9 96 ed ff ff       	jmpq   400d10 <puts@plt>
  401f7a:	50                   	push   %rax
  401f7b:	bf 58 3c 40 00       	mov    $0x403c58,%edi
  401f80:	e8 8b ed ff ff       	callq  400d10 <puts@plt>
  401f85:	bf a8 3c 40 00       	mov    $0x403ca8,%edi
  401f8a:	e8 81 ed ff ff       	callq  400d10 <puts@plt>
  401f8f:	bf f8 3c 40 00       	mov    $0x403cf8,%edi
  401f94:	e8 77 ed ff ff       	callq  400d10 <puts@plt>
  401f99:	e8 e2 fe ff ff       	callq  401e80 <explode_bomb>
  401f9e:	66 90                	xchg   %ax,%ax
  401fa0:	48 83 ec 08          	sub    $0x8,%rsp
  401fa4:	83 3d b5 34 20 00 05 	cmpl   $0x5,0x2034b5(%rip)        # 605460 <num_input_strings>
  401fab:	7e 4b                	jle    401ff8 <sigusr1_handler+0xe8>
  401fad:	8b 05 b1 34 20 00    	mov    0x2034b1(%rip),%eax        # 605464 <count.5628>
  401fb3:	83 c0 01             	add    $0x1,%eax
  401fb6:	83 f8 01             	cmp    $0x1,%eax
  401fb9:	89 05 a5 34 20 00    	mov    %eax,0x2034a5(%rip)        # 605464 <count.5628>
  401fbf:	74 0f                	je     401fd0 <sigusr1_handler+0xc0>
  401fc1:	83 f8 02             	cmp    $0x2,%eax
  401fc4:	74 1a                	je     401fe0 <sigusr1_handler+0xd0>
  401fc6:	7f 35                	jg     401ffd <sigusr1_handler+0xed>
  401fc8:	48 83 c4 08          	add    $0x8,%rsp
  401fcc:	c3                   	retq   
  401fcd:	0f 1f 00             	nopl   (%rax)
  401fd0:	bf 48 3d 40 00       	mov    $0x403d48,%edi
  401fd5:	48 83 c4 08          	add    $0x8,%rsp
  401fd9:	e9 32 ed ff ff       	jmpq   400d10 <puts@plt>
  401fde:	66 90                	xchg   %ax,%ax
  401fe0:	bf 70 3d 40 00       	mov    $0x403d70,%edi
  401fe5:	e8 26 ed ff ff       	callq  400d10 <puts@plt>
  401fea:	bf b0 3d 40 00       	mov    $0x403db0,%edi
  401fef:	48 83 c4 08          	add    $0x8,%rsp
  401ff3:	e9 18 ed ff ff       	jmpq   400d10 <puts@plt>
  401ff8:	e8 13 ef ff ff       	callq  400f10 <sigint_handler.part.2>
  401ffd:	bf e0 3d 40 00       	mov    $0x403de0,%edi
  402002:	e8 09 ed ff ff       	callq  400d10 <puts@plt>
  402007:	e8 74 fe ff ff       	callq  401e80 <explode_bomb>
  40200c:	0f 1f 40 00          	nopl   0x0(%rax)

0000000000402010 <read_line>:
  402010:	55                   	push   %rbp
  402011:	53                   	push   %rbx
  402012:	48 83 ec 08          	sub    $0x8,%rsp
  402016:	48 63 05 43 34 20 00 	movslq 0x203443(%rip),%rax        # 605460 <num_input_strings>
  40201d:	48 8b 15 4c 34 20 00 	mov    0x20344c(%rip),%rdx        # 605470 <infile>
  402024:	83 f8 07             	cmp    $0x7,%eax
  402027:	0f 84 73 01 00 00    	je     4021a0 <read_line+0x190>
  40202d:	0f 1f 00             	nopl   (%rax)
  402030:	48 8d 04 80          	lea    (%rax,%rax,4),%rax
  402034:	be 64 00 00 00       	mov    $0x64,%esi
  402039:	48 8d 04 80          	lea    (%rax,%rax,4),%rax
  40203d:	48 8d 3c 85 80 54 60 	lea    0x605480(,%rax,4),%rdi
  402044:	00 
  402045:	e8 76 ed ff ff       	callq  400dc0 <fgets@plt>
  40204a:	48 85 c0             	test   %rax,%rax
  40204d:	48 89 c5             	mov    %rax,%rbp
  402050:	75 19                	jne    40206b <read_line+0x5b>
  402052:	eb 7c                	jmp    4020d0 <read_line+0xc0>
  402054:	0f 1f 40 00          	nopl   0x0(%rax)
  402058:	e8 73 ee ff ff       	callq  400ed0 <__ctype_b_loc@plt>
  40205d:	48 8b 00             	mov    (%rax),%rax
  402060:	48 83 c5 01          	add    $0x1,%rbp
  402064:	f6 44 58 01 20       	testb  $0x20,0x1(%rax,%rbx,2)
  402069:	74 1d                	je     402088 <read_line+0x78>
  40206b:	48 0f be 5d 00       	movsbq 0x0(%rbp),%rbx
  402070:	84 db                	test   %bl,%bl
  402072:	75 e4                	jne    402058 <read_line+0x48>
  402074:	48 63 05 e5 33 20 00 	movslq 0x2033e5(%rip),%rax        # 605460 <num_input_strings>
  40207b:	48 8b 15 ee 33 20 00 	mov    0x2033ee(%rip),%rdx        # 605470 <infile>
  402082:	eb ac                	jmp    402030 <read_line+0x20>
  402084:	0f 1f 40 00          	nopl   0x0(%rax)
  402088:	48 63 05 d1 33 20 00 	movslq 0x2033d1(%rip),%rax        # 605460 <num_input_strings>
  40208f:	48 89 c3             	mov    %rax,%rbx
  402092:	48 8d 04 80          	lea    (%rax,%rax,4),%rax
  402096:	48 8d 04 80          	lea    (%rax,%rax,4),%rax
  40209a:	48 8d 2c 85 80 54 60 	lea    0x605480(,%rax,4),%rbp
  4020a1:	00 
  4020a2:	48 89 ef             	mov    %rbp,%rdi
  4020a5:	e8 86 ec ff ff       	callq  400d30 <strlen@plt>
  4020aa:	83 f8 62             	cmp    $0x62,%eax
  4020ad:	0f 8f 79 01 00 00    	jg     40222c <read_line+0x21c>
  4020b3:	83 e8 01             	sub    $0x1,%eax
  4020b6:	83 c3 01             	add    $0x1,%ebx
  4020b9:	48 98                	cltq   
  4020bb:	89 1d 9f 33 20 00    	mov    %ebx,0x20339f(%rip)        # 605460 <num_input_strings>
  4020c1:	c6 44 05 00 00       	movb   $0x0,0x0(%rbp,%rax,1)
  4020c6:	48 83 c4 08          	add    $0x8,%rsp
  4020ca:	48 89 e8             	mov    %rbp,%rax
  4020cd:	5b                   	pop    %rbx
  4020ce:	5d                   	pop    %rbp
  4020cf:	c3                   	retq   
  4020d0:	48 8b 15 99 33 20 00 	mov    0x203399(%rip),%rdx        # 605470 <infile>
  4020d7:	48 3b 15 32 32 20 00 	cmp    0x203232(%rip),%rdx        # 605310 <stdin@@GLIBC_2.2.5>
  4020de:	0f 84 d0 00 00 00    	je     4021b4 <read_line+0x1a4>
  4020e4:	bf 52 3a 40 00       	mov    $0x403a52,%edi
  4020e9:	e8 e2 eb ff ff       	callq  400cd0 <getenv@plt>
  4020ee:	48 85 c0             	test   %rax,%rax
  4020f1:	0f 85 82 01 00 00    	jne    402279 <read_line+0x269>
  4020f7:	48 8b 15 12 32 20 00 	mov    0x203212(%rip),%rdx        # 605310 <stdin@@GLIBC_2.2.5>
  4020fe:	48 89 15 6b 33 20 00 	mov    %rdx,0x20336b(%rip)        # 605470 <infile>
  402105:	0f 1f 00             	nopl   (%rax)
  402108:	48 63 05 51 33 20 00 	movslq 0x203351(%rip),%rax        # 605460 <num_input_strings>
  40210f:	be 64 00 00 00       	mov    $0x64,%esi
  402114:	48 8d 04 80          	lea    (%rax,%rax,4),%rax
  402118:	48 8d 04 80          	lea    (%rax,%rax,4),%rax
  40211c:	48 8d 3c 85 80 54 60 	lea    0x605480(,%rax,4),%rdi
  402123:	00 
  402124:	e8 97 ec ff ff       	callq  400dc0 <fgets@plt>
  402129:	48 85 c0             	test   %rax,%rax
  40212c:	48 89 c5             	mov    %rax,%rbp
  40212f:	75 1e                	jne    40214f <read_line+0x13f>
  402131:	eb 2e                	jmp    402161 <read_line+0x151>
  402133:	0f 1f 44 00 00       	nopl   0x0(%rax,%rax,1)
  402138:	e8 93 ed ff ff       	callq  400ed0 <__ctype_b_loc@plt>
  40213d:	48 8b 00             	mov    (%rax),%rax
  402140:	48 83 c5 01          	add    $0x1,%rbp
  402144:	f6 44 58 01 20       	testb  $0x20,0x1(%rax,%rbx,2)
  402149:	0f 84 39 ff ff ff    	je     402088 <read_line+0x78>
  40214f:	48 0f be 5d 00       	movsbq 0x0(%rbp),%rbx
  402154:	84 db                	test   %bl,%bl
  402156:	75 e0                	jne    402138 <read_line+0x128>
  402158:	48 8b 15 11 33 20 00 	mov    0x203311(%rip),%rdx        # 605470 <infile>
  40215f:	eb a7                	jmp    402108 <read_line+0xf8>
  402161:	48 63 05 f8 32 20 00 	movslq 0x2032f8(%rip),%rax        # 605460 <num_input_strings>
  402168:	83 f8 05             	cmp    $0x5,%eax
  40216b:	0f 8e 0f 01 00 00    	jle    402280 <read_line+0x270>
  402171:	8b 0d ed 32 20 00    	mov    0x2032ed(%rip),%ecx        # 605464 <count.5628>
  402177:	8d 51 01             	lea    0x1(%rcx),%edx
  40217a:	83 fa 01             	cmp    $0x1,%edx
  40217d:	89 15 e1 32 20 00    	mov    %edx,0x2032e1(%rip)        # 605464 <count.5628>
  402183:	74 63                	je     4021e8 <read_line+0x1d8>
  402185:	83 fa 02             	cmp    $0x2,%edx
  402188:	74 7b                	je     402205 <read_line+0x1f5>
  40218a:	0f 8e 8d fe ff ff    	jle    40201d <read_line+0xd>
  402190:	bf e0 3d 40 00       	mov    $0x403de0,%edi
  402195:	e8 76 eb ff ff       	callq  400d10 <puts@plt>
  40219a:	e8 e1 fc ff ff       	callq  401e80 <explode_bomb>
  40219f:	90                   	nop
  4021a0:	c7 05 b6 32 20 00 06 	movl   $0x6,0x2032b6(%rip)        # 605460 <num_input_strings>
  4021a7:	00 00 00 
  4021aa:	b8 06 00 00 00       	mov    $0x6,%eax
  4021af:	e9 7c fe ff ff       	jmpq   402030 <read_line+0x20>
  4021b4:	48 63 05 a5 32 20 00 	movslq 0x2032a5(%rip),%rax        # 605460 <num_input_strings>
  4021bb:	83 f8 05             	cmp    $0x5,%eax
  4021be:	0f 8e bc 00 00 00    	jle    402280 <read_line+0x270>
  4021c4:	8b 0d 9a 32 20 00    	mov    0x20329a(%rip),%ecx        # 605464 <count.5628>
  4021ca:	83 c1 01             	add    $0x1,%ecx
  4021cd:	83 f9 01             	cmp    $0x1,%ecx
  4021d0:	89 0d 8e 32 20 00    	mov    %ecx,0x20328e(%rip)        # 605464 <count.5628>
  4021d6:	74 10                	je     4021e8 <read_line+0x1d8>
  4021d8:	83 f9 02             	cmp    $0x2,%ecx
  4021db:	74 28                	je     402205 <read_line+0x1f5>
  4021dd:	0f 8e 41 fe ff ff    	jle    402024 <read_line+0x14>
  4021e3:	eb ab                	jmp    402190 <read_line+0x180>
  4021e5:	0f 1f 00             	nopl   (%rax)
  4021e8:	bf 48 3d 40 00       	mov    $0x403d48,%edi
  4021ed:	e8 1e eb ff ff       	callq  400d10 <puts@plt>
  4021f2:	48 63 05 67 32 20 00 	movslq 0x203267(%rip),%rax        # 605460 <num_input_strings>
  4021f9:	48 8b 15 70 32 20 00 	mov    0x203270(%rip),%rdx        # 605470 <infile>
  402200:	e9 1f fe ff ff       	jmpq   402024 <read_line+0x14>
  402205:	bf 70 3d 40 00       	mov    $0x403d70,%edi
  40220a:	e8 01 eb ff ff       	callq  400d10 <puts@plt>
  40220f:	bf b0 3d 40 00       	mov    $0x403db0,%edi
  402214:	e8 f7 ea ff ff       	callq  400d10 <puts@plt>
  402219:	48 63 05 40 32 20 00 	movslq 0x203240(%rip),%rax        # 605460 <num_input_strings>
  402220:	48 8b 15 49 32 20 00 	mov    0x203249(%rip),%rdx        # 605470 <infile>
  402227:	e9 f8 fd ff ff       	jmpq   402024 <read_line+0x14>
  40222c:	bf 5d 3a 40 00       	mov    $0x403a5d,%edi
  402231:	e8 da ea ff ff       	callq  400d10 <puts@plt>
  402236:	48 63 05 23 32 20 00 	movslq 0x203223(%rip),%rax        # 605460 <num_input_strings>
  40223d:	48 b9 2a 2a 2a 74 72 	movabs $0x636e7572742a2a2a,%rcx
  402244:	75 6e 63 
  402247:	8d 50 01             	lea    0x1(%rax),%edx
  40224a:	48 8d 04 80          	lea    (%rax,%rax,4),%rax
  40224e:	48 8d 04 80          	lea    (%rax,%rax,4),%rax
  402252:	89 15 08 32 20 00    	mov    %edx,0x203208(%rip)        # 605460 <num_input_strings>
  402258:	48 c1 e0 02          	shl    $0x2,%rax
  40225c:	48 89 88 80 54 60 00 	mov    %rcx,0x605480(%rax)
  402263:	48 b9 61 74 65 64 2a 	movabs $0x2a2a2a64657461,%rcx
  40226a:	2a 2a 00 
  40226d:	48 89 88 88 54 60 00 	mov    %rcx,0x605488(%rax)
  402274:	e8 07 fc ff ff       	callq  401e80 <explode_bomb>
  402279:	31 ff                	xor    %edi,%edi
  40227b:	e8 00 ec ff ff       	callq  400e80 <exit@plt>
  402280:	e8 8b ec ff ff       	callq  400f10 <sigint_handler.part.2>
  402285:	90                   	nop
  402286:	66 2e 0f 1f 84 00 00 	nopw   %cs:0x0(%rax,%rax,1)
  40228d:	00 00 00 

0000000000402290 <phase_defused>:
  402290:	48 83 ec 08          	sub    $0x8,%rsp
  402294:	8b 3d c6 31 20 00    	mov    0x2031c6(%rip),%edi        # 605460 <num_input_strings>
  40229a:	e8 11 f7 ff ff       	callq  4019b0 <test_secret_phrase>
  40229f:	85 c0                	test   %eax,%eax
  4022a1:	74 1d                	je     4022c0 <phase_defused+0x30>
  4022a3:	8b 05 b7 31 20 00    	mov    0x2031b7(%rip),%eax        # 605460 <num_input_strings>
  4022a9:	39 05 21 30 20 00    	cmp    %eax,0x203021(%rip)        # 6052d0 <__dso_handle+0x188>
  4022af:	74 0f                	je     4022c0 <phase_defused+0x30>
  4022b1:	e8 ca fb ff ff       	callq  401e80 <explode_bomb>
  4022b6:	66 2e 0f 1f 84 00 00 	nopw   %cs:0x0(%rax,%rax,1)
  4022bd:	00 00 00 
  4022c0:	8b 3d 9a 31 20 00    	mov    0x20319a(%rip),%edi        # 605460 <num_input_strings>
  4022c6:	e8 e5 f6 ff ff       	callq  4019b0 <test_secret_phrase>
  4022cb:	83 f8 ff             	cmp    $0xffffffff,%eax
  4022ce:	75 18                	jne    4022e8 <phase_defused+0x58>
  4022d0:	8b 05 8a 31 20 00    	mov    0x20318a(%rip),%eax        # 605460 <num_input_strings>
  4022d6:	39 05 f4 2f 20 00    	cmp    %eax,0x202ff4(%rip)        # 6052d0 <__dso_handle+0x188>
  4022dc:	75 0a                	jne    4022e8 <phase_defused+0x58>
  4022de:	e8 9d fb ff ff       	callq  401e80 <explode_bomb>
  4022e3:	0f 1f 44 00 00       	nopl   0x0(%rax,%rax,1)
  4022e8:	bf 01 00 00 00       	mov    $0x1,%edi
  4022ed:	e8 8e fa ff ff       	callq  401d80 <invalid_phase+0x260>
  4022f2:	83 3d 67 31 20 00 06 	cmpl   $0x6,0x203167(%rip)        # 605460 <num_input_strings>
  4022f9:	75 61                	jne    40235c <phase_defused+0xcc>
  4022fb:	8b 3d cf 2f 20 00    	mov    0x202fcf(%rip),%edi        # 6052d0 <__dso_handle+0x188>
  402301:	e8 aa f6 ff ff       	callq  4019b0 <test_secret_phrase>
  402306:	83 f8 01             	cmp    $0x1,%eax
  402309:	75 3d                	jne    402348 <phase_defused+0xb8>
  40230b:	bf 10 3e 40 00       	mov    $0x403e10,%edi
  402310:	e8 fb e9 ff ff       	callq  400d10 <puts@plt>
  402315:	bf 78 3a 40 00       	mov    $0x403a78,%edi
  40231a:	e8 f1 e9 ff ff       	callq  400d10 <puts@plt>
  40231f:	e8 c4 f5 ff ff       	callq  4018e8 <secret_phase>
  402324:	bf 40 3e 40 00       	mov    $0x403e40,%edi
  402329:	e8 e2 e9 ff ff       	callq  400d10 <puts@plt>
  40232e:	bf 01 00 00 00       	mov    $0x1,%edi
  402333:	e8 48 fa ff ff       	callq  401d80 <invalid_phase+0x260>
  402338:	bf 80 3e 40 00       	mov    $0x403e80,%edi
  40233d:	e8 ce e9 ff ff       	callq  400d10 <puts@plt>
  402342:	eb 18                	jmp    40235c <phase_defused+0xcc>
  402344:	0f 1f 40 00          	nopl   0x0(%rax)
  402348:	bf c8 3e 40 00       	mov    $0x403ec8,%edi
  40234d:	e8 be e9 ff ff       	callq  400d10 <puts@plt>
  402352:	bf 80 3e 40 00       	mov    $0x403e80,%edi
  402357:	e8 b4 e9 ff ff       	callq  400d10 <puts@plt>
  40235c:	48 83 c4 08          	add    $0x8,%rsp
  402360:	c3                   	retq   
  402361:	66 2e 0f 1f 84 00 00 	nopw   %cs:0x0(%rax,%rax,1)
  402368:	00 00 00 
  40236b:	0f 1f 44 00 00       	nopl   0x0(%rax,%rax,1)

0000000000402370 <sigalrm_handler>:
  402370:	48 83 ec 08          	sub    $0x8,%rsp
  402374:	48 8b 3d a5 2f 20 00 	mov    0x202fa5(%rip),%rdi        # 605320 <stderr@@GLIBC_2.2.5>
  40237b:	31 c9                	xor    %ecx,%ecx
  40237d:	ba f8 3e 40 00       	mov    $0x403ef8,%edx
  402382:	be 01 00 00 00       	mov    $0x1,%esi
  402387:	31 c0                	xor    %eax,%eax
  402389:	e8 12 eb ff ff       	callq  400ea0 <__fprintf_chk@plt>
  40238e:	bf 01 00 00 00       	mov    $0x1,%edi
  402393:	e8 e8 ea ff ff       	callq  400e80 <exit@plt>
  402398:	0f 1f 84 00 00 00 00 	nopl   0x0(%rax,%rax,1)
  40239f:	00 

00000000004023a0 <rio_readlineb.constprop.0>:
  4023a0:	41 56                	push   %r14
  4023a2:	41 55                	push   %r13
  4023a4:	49 89 f6             	mov    %rsi,%r14
  4023a7:	41 54                	push   %r12
  4023a9:	4c 8d 67 10          	lea    0x10(%rdi),%r12
  4023ad:	55                   	push   %rbp
  4023ae:	41 bd 01 00 00 00    	mov    $0x1,%r13d
  4023b4:	53                   	push   %rbx
  4023b5:	48 89 fb             	mov    %rdi,%rbx
  4023b8:	0f 1f 84 00 00 00 00 	nopl   0x0(%rax,%rax,1)
  4023bf:	00 
  4023c0:	8b 6b 04             	mov    0x4(%rbx),%ebp
  4023c3:	0f 1f 44 00 00       	nopl   0x0(%rax,%rax,1)
  4023c8:	85 ed                	test   %ebp,%ebp
  4023ca:	7f 22                	jg     4023ee <rio_readlineb.constprop.0+0x4e>
  4023cc:	8b 3b                	mov    (%rbx),%edi
  4023ce:	ba 00 20 00 00       	mov    $0x2000,%edx
  4023d3:	4c 89 e6             	mov    %r12,%rsi
  4023d6:	e8 a5 e9 ff ff       	callq  400d80 <read@plt>
  4023db:	85 c0                	test   %eax,%eax
  4023dd:	89 c5                	mov    %eax,%ebp
  4023df:	89 43 04             	mov    %eax,0x4(%rbx)
  4023e2:	78 4c                	js     402430 <rio_readlineb.constprop.0+0x90>
  4023e4:	74 6a                	je     402450 <rio_readlineb.constprop.0+0xb0>
  4023e6:	85 ed                	test   %ebp,%ebp
  4023e8:	4c 89 63 08          	mov    %r12,0x8(%rbx)
  4023ec:	7e de                	jle    4023cc <rio_readlineb.constprop.0+0x2c>
  4023ee:	48 8b 43 08          	mov    0x8(%rbx),%rax
  4023f2:	83 ed 01             	sub    $0x1,%ebp
  4023f5:	49 83 c6 01          	add    $0x1,%r14
  4023f9:	0f b6 10             	movzbl (%rax),%edx
  4023fc:	48 83 c0 01          	add    $0x1,%rax
  402400:	89 6b 04             	mov    %ebp,0x4(%rbx)
  402403:	48 89 43 08          	mov    %rax,0x8(%rbx)
  402407:	80 fa 0a             	cmp    $0xa,%dl
  40240a:	41 88 56 ff          	mov    %dl,-0x1(%r14)
  40240e:	74 10                	je     402420 <rio_readlineb.constprop.0+0x80>
  402410:	41 83 c5 01          	add    $0x1,%r13d
  402414:	41 81 fd 00 20 00 00 	cmp    $0x2000,%r13d
  40241b:	75 a3                	jne    4023c0 <rio_readlineb.constprop.0+0x20>
  40241d:	0f 1f 00             	nopl   (%rax)
  402420:	41 c6 06 00          	movb   $0x0,(%r14)
  402424:	49 63 c5             	movslq %r13d,%rax
  402427:	5b                   	pop    %rbx
  402428:	5d                   	pop    %rbp
  402429:	41 5c                	pop    %r12
  40242b:	41 5d                	pop    %r13
  40242d:	41 5e                	pop    %r14
  40242f:	c3                   	retq   
  402430:	e8 bb e8 ff ff       	callq  400cf0 <__errno_location@plt>
  402435:	83 38 04             	cmpl   $0x4,(%rax)
  402438:	74 8e                	je     4023c8 <rio_readlineb.constprop.0+0x28>
  40243a:	5b                   	pop    %rbx
  40243b:	48 c7 c0 ff ff ff ff 	mov    $0xffffffffffffffff,%rax
  402442:	5d                   	pop    %rbp
  402443:	41 5c                	pop    %r12
  402445:	41 5d                	pop    %r13
  402447:	41 5e                	pop    %r14
  402449:	c3                   	retq   
  40244a:	66 0f 1f 44 00 00    	nopw   0x0(%rax,%rax,1)
  402450:	41 83 fd 01          	cmp    $0x1,%r13d
  402454:	75 ca                	jne    402420 <rio_readlineb.constprop.0+0x80>
  402456:	31 c0                	xor    %eax,%eax
  402458:	eb cd                	jmp    402427 <rio_readlineb.constprop.0+0x87>
  40245a:	66 0f 1f 44 00 00    	nopw   0x0(%rax,%rax,1)
  402460:	55                   	push   %rbp
  402461:	48 89 e5             	mov    %rsp,%rbp
  402464:	41 57                	push   %r15
  402466:	41 56                	push   %r14
  402468:	41 55                	push   %r13
  40246a:	41 54                	push   %r12
  40246c:	49 89 fe             	mov    %rdi,%r14
  40246f:	53                   	push   %rbx
  402470:	41 89 f4             	mov    %esi,%r12d
  402473:	49 89 d7             	mov    %rdx,%r15
  402476:	be 01 00 00 00       	mov    $0x1,%esi
  40247b:	31 d2                	xor    %edx,%edx
  40247d:	bf 02 00 00 00       	mov    $0x2,%edi
  402482:	48 81 ec 78 a0 00 00 	sub    $0xa078,%rsp
  402489:	48 8b 45 18          	mov    0x18(%rbp),%rax
  40248d:	48 89 8d 80 5f ff ff 	mov    %rcx,-0xa080(%rbp)
  402494:	4c 89 85 70 5f ff ff 	mov    %r8,-0xa090(%rbp)
  40249b:	4c 89 8d 78 5f ff ff 	mov    %r9,-0xa088(%rbp)
  4024a2:	4c 8b 6d 10          	mov    0x10(%rbp),%r13
  4024a6:	c7 85 9c 5f ff ff 00 	movl   $0x0,-0xa064(%rbp)
  4024ad:	00 00 00 
  4024b0:	48 89 85 88 5f ff ff 	mov    %rax,-0xa078(%rbp)
  4024b7:	64 48 8b 04 25 28 00 	mov    %fs:0x28,%rax
  4024be:	00 00 
  4024c0:	48 89 45 c8          	mov    %rax,-0x38(%rbp)
  4024c4:	31 c0                	xor    %eax,%eax
  4024c6:	e8 25 ea ff ff       	callq  400ef0 <socket@plt>
  4024cb:	85 c0                	test   %eax,%eax
  4024cd:	0f 88 8f 06 00 00    	js     402b62 <rio_readlineb.constprop.0+0x7c2>
  4024d3:	4c 89 f7             	mov    %r14,%rdi
  4024d6:	89 c3                	mov    %eax,%ebx
  4024d8:	e8 03 e9 ff ff       	callq  400de0 <gethostbyname@plt>
  4024dd:	48 85 c0             	test   %rax,%rax
  4024e0:	0f 84 d6 06 00 00    	je     402bbc <rio_readlineb.constprop.0+0x81c>
  4024e6:	48 c7 85 a8 5f ff ff 	movq   $0x0,-0xa058(%rbp)
  4024ed:	00 00 00 00 
  4024f1:	48 63 50 14          	movslq 0x14(%rax),%rdx
  4024f5:	48 8d 8d a0 5f ff ff 	lea    -0xa060(%rbp),%rcx
  4024fc:	48 8b 40 18          	mov    0x18(%rax),%rax
  402500:	48 c7 85 a0 5f ff ff 	movq   $0x0,-0xa060(%rbp)
  402507:	00 00 00 00 
  40250b:	41 b8 02 00 00 00    	mov    $0x2,%r8d
  402511:	48 8d 79 04          	lea    0x4(%rcx),%rdi
  402515:	b9 0c 00 00 00       	mov    $0xc,%ecx
  40251a:	66 44 89 85 a0 5f ff 	mov    %r8w,-0xa060(%rbp)
  402521:	ff 
  402522:	66 41 c1 cc 08       	ror    $0x8,%r12w
  402527:	48 8b 30             	mov    (%rax),%rsi
  40252a:	e8 c1 e8 ff ff       	callq  400df0 <__memmove_chk@plt>
  40252f:	48 8d b5 a0 5f ff ff 	lea    -0xa060(%rbp),%rsi
  402536:	ba 10 00 00 00       	mov    $0x10,%edx
  40253b:	89 df                	mov    %ebx,%edi
  40253d:	66 44 89 a5 a2 5f ff 	mov    %r12w,-0xa05e(%rbp)
  402544:	ff 
  402545:	e8 46 e9 ff ff       	callq  400e90 <connect@plt>
  40254a:	85 c0                	test   %eax,%eax
  40254c:	0f 88 dd 06 00 00    	js     402c2f <rio_readlineb.constprop.0+0x88f>
  402552:	4c 89 ef             	mov    %r13,%rdi
  402555:	e8 d6 e7 ff ff       	callq  400d30 <strlen@plt>
  40255a:	4c 89 ff             	mov    %r15,%rdi
  40255d:	49 89 c4             	mov    %rax,%r12
  402560:	e8 cb e7 ff ff       	callq  400d30 <strlen@plt>
  402565:	48 8b bd 80 5f ff ff 	mov    -0xa080(%rbp),%rdi
  40256c:	49 89 c7             	mov    %rax,%r15
  40256f:	e8 bc e7 ff ff       	callq  400d30 <strlen@plt>
  402574:	48 8b bd 78 5f ff ff 	mov    -0xa088(%rbp),%rdi
  40257b:	49 89 c6             	mov    %rax,%r14
  40257e:	e8 ad e7 ff ff       	callq  400d30 <strlen@plt>
  402583:	4b 8d 94 37 80 00 00 	lea    0x80(%r15,%r14,1),%rdx
  40258a:	00 
  40258b:	48 01 d0             	add    %rdx,%rax
  40258e:	4b 8d 14 64          	lea    (%r12,%r12,2),%rdx
  402592:	48 01 d0             	add    %rdx,%rax
  402595:	48 3d 00 20 00 00    	cmp    $0x2000,%rax
  40259b:	0f 87 02 04 00 00    	ja     4029a3 <rio_readlineb.constprop.0+0x603>
  4025a1:	4c 8d 95 c0 9f ff ff 	lea    -0x6040(%rbp),%r10
  4025a8:	31 c0                	xor    %eax,%eax
  4025aa:	b9 00 04 00 00       	mov    $0x400,%ecx
  4025af:	45 85 e4             	test   %r12d,%r12d
  4025b2:	4c 89 d7             	mov    %r10,%rdi
  4025b5:	f3 48 ab             	rep stos %rax,%es:(%rdi)
  4025b8:	0f 84 c2 00 00 00    	je     402680 <rio_readlineb.constprop.0+0x2e0>
  4025be:	41 8d 44 24 ff       	lea    -0x1(%r12),%eax
  4025c3:	49 be d9 ff 00 00 00 	movabs $0x2000000000ffd9,%r14
  4025ca:	00 20 00 
  4025cd:	4d 89 d4             	mov    %r10,%r12
  4025d0:	4d 8d 7c 05 01       	lea    0x1(%r13,%rax,1),%r15
  4025d5:	0f 1f 00             	nopl   (%rax)
  4025d8:	45 0f b6 45 00       	movzbl 0x0(%r13),%r8d
  4025dd:	41 8d 40 d6          	lea    -0x2a(%r8),%eax
  4025e1:	3c 35                	cmp    $0x35,%al
  4025e3:	0f 86 97 02 00 00    	jbe    402880 <rio_readlineb.constprop.0+0x4e0>
  4025e9:	44 89 c0             	mov    %r8d,%eax
  4025ec:	83 e0 df             	and    $0xffffffdf,%eax
  4025ef:	83 e8 41             	sub    $0x41,%eax
  4025f2:	3c 19                	cmp    $0x19,%al
  4025f4:	0f 86 90 02 00 00    	jbe    40288a <rio_readlineb.constprop.0+0x4ea>
  4025fa:	41 80 f8 20          	cmp    $0x20,%r8b
  4025fe:	0f 84 85 03 00 00    	je     402989 <rio_readlineb.constprop.0+0x5e9>
  402604:	41 8d 40 e0          	lea    -0x20(%r8),%eax
  402608:	3c 5f                	cmp    $0x5f,%al
  40260a:	76 0a                	jbe    402616 <rio_readlineb.constprop.0+0x276>
  40260c:	41 80 f8 09          	cmp    $0x9,%r8b
  402610:	0f 85 3d 04 00 00    	jne    402a53 <rio_readlineb.constprop.0+0x6b3>
  402616:	48 8d bd c0 df ff ff 	lea    -0x2040(%rbp),%rdi
  40261d:	31 c0                	xor    %eax,%eax
  40261f:	b9 d0 3f 40 00       	mov    $0x403fd0,%ecx
  402624:	ba 08 00 00 00       	mov    $0x8,%edx
  402629:	be 01 00 00 00       	mov    $0x1,%esi
  40262e:	4c 89 95 68 5f ff ff 	mov    %r10,-0xa098(%rbp)
  402635:	e8 a6 e8 ff ff       	callq  400ee0 <__sprintf_chk@plt>
  40263a:	0f b6 85 c0 df ff ff 	movzbl -0x2040(%rbp),%eax
  402641:	49 83 c5 01          	add    $0x1,%r13
  402645:	49 83 c4 03          	add    $0x3,%r12
  402649:	4c 8b 95 68 5f ff ff 	mov    -0xa098(%rbp),%r10
  402650:	41 88 44 24 fd       	mov    %al,-0x3(%r12)
  402655:	0f b6 85 c1 df ff ff 	movzbl -0x203f(%rbp),%eax
  40265c:	41 88 44 24 fe       	mov    %al,-0x2(%r12)
  402661:	0f b6 85 c2 df ff ff 	movzbl -0x203e(%rbp),%eax
  402668:	41 88 44 24 ff       	mov    %al,-0x1(%r12)
  40266d:	4d 39 ef             	cmp    %r13,%r15
  402670:	0f 85 62 ff ff ff    	jne    4025d8 <rio_readlineb.constprop.0+0x238>
  402676:	66 2e 0f 1f 84 00 00 	nopw   %cs:0x0(%rax,%rax,1)
  40267d:	00 00 00 
  402680:	4c 8d a5 c0 7f ff ff 	lea    -0x8040(%rbp),%r12
  402687:	4c 8b 8d 70 5f ff ff 	mov    -0xa090(%rbp),%r9
  40268e:	4c 8b 85 80 5f ff ff 	mov    -0xa080(%rbp),%r8
  402695:	41 52                	push   %r10
  402697:	ff b5 78 5f ff ff    	pushq  -0xa088(%rbp)
  40269d:	b9 50 3f 40 00       	mov    $0x403f50,%ecx
  4026a2:	4c 89 e7             	mov    %r12,%rdi
  4026a5:	ba 00 20 00 00       	mov    $0x2000,%edx
  4026aa:	be 01 00 00 00       	mov    $0x1,%esi
  4026af:	31 c0                	xor    %eax,%eax
  4026b1:	4d 89 e7             	mov    %r12,%r15
  4026b4:	e8 27 e8 ff ff       	callq  400ee0 <__sprintf_chk@plt>
  4026b9:	48 8b 85 88 5f ff ff 	mov    -0xa078(%rbp),%rax
  4026c0:	48 89 c7             	mov    %rax,%rdi
  4026c3:	41 8b 17             	mov    (%r15),%edx
  4026c6:	49 83 c7 04          	add    $0x4,%r15
  4026ca:	8d 82 ff fe fe fe    	lea    -0x1010101(%rdx),%eax
  4026d0:	f7 d2                	not    %edx
  4026d2:	21 d0                	and    %edx,%eax
  4026d4:	25 80 80 80 80       	and    $0x80808080,%eax
  4026d9:	74 e8                	je     4026c3 <rio_readlineb.constprop.0+0x323>
  4026db:	89 c2                	mov    %eax,%edx
  4026dd:	48 89 bd 88 5f ff ff 	mov    %rdi,-0xa078(%rbp)
  4026e4:	c1 ea 10             	shr    $0x10,%edx
  4026e7:	a9 80 80 00 00       	test   $0x8080,%eax
  4026ec:	0f 44 c2             	cmove  %edx,%eax
  4026ef:	49 8d 57 02          	lea    0x2(%r15),%rdx
  4026f3:	89 c6                	mov    %eax,%esi
  4026f5:	4c 0f 44 fa          	cmove  %rdx,%r15
  4026f9:	40 00 c6             	add    %al,%sil
  4026fc:	49 83 df 03          	sbb    $0x3,%r15
  402700:	4d 29 e7             	sub    %r12,%r15
  402703:	58                   	pop    %rax
  402704:	5a                   	pop    %rdx
  402705:	74 37                	je     40273e <rio_readlineb.constprop.0+0x39e>
  402707:	4d 89 fd             	mov    %r15,%r13
  40270a:	4d 89 e6             	mov    %r12,%r14
  40270d:	0f 1f 00             	nopl   (%rax)
  402710:	4c 89 ea             	mov    %r13,%rdx
  402713:	4c 89 f6             	mov    %r14,%rsi
  402716:	89 df                	mov    %ebx,%edi
  402718:	e8 03 e6 ff ff       	callq  400d20 <write@plt>
  40271d:	48 85 c0             	test   %rax,%rax
  402720:	0f 8e 82 01 00 00    	jle    4028a8 <rio_readlineb.constprop.0+0x508>
  402726:	49 01 c6             	add    %rax,%r14
  402729:	49 29 c5             	sub    %rax,%r13
  40272c:	75 e2                	jne    402710 <rio_readlineb.constprop.0+0x370>
  40272e:	4d 85 ff             	test   %r15,%r15
  402731:	48 8b 85 88 5f ff ff 	mov    -0xa078(%rbp),%rax
  402738:	0f 88 7f 01 00 00    	js     4028bd <rio_readlineb.constprop.0+0x51d>
  40273e:	48 8d 85 b0 5f ff ff 	lea    -0xa050(%rbp),%rax
  402745:	48 8d bd b0 5f ff ff 	lea    -0xa050(%rbp),%rdi
  40274c:	4c 89 e6             	mov    %r12,%rsi
  40274f:	89 9d b0 5f ff ff    	mov    %ebx,-0xa050(%rbp)
  402755:	c7 85 b4 5f ff ff 00 	movl   $0x0,-0xa04c(%rbp)
  40275c:	00 00 00 
  40275f:	48 83 c0 10          	add    $0x10,%rax
  402763:	48 89 85 b8 5f ff ff 	mov    %rax,-0xa048(%rbp)
  40276a:	e8 31 fc ff ff       	callq  4023a0 <rio_readlineb.constprop.0>
  40276f:	48 85 c0             	test   %rax,%rax
  402772:	0f 8e 6f 03 00 00    	jle    402ae7 <rio_readlineb.constprop.0+0x747>
  402778:	4c 8d 85 c0 df ff ff 	lea    -0x2040(%rbp),%r8
  40277f:	48 8d 8d 9c 5f ff ff 	lea    -0xa064(%rbp),%rcx
  402786:	48 8d 95 c0 bf ff ff 	lea    -0x4040(%rbp),%rdx
  40278d:	31 c0                	xor    %eax,%eax
  40278f:	be d7 3f 40 00       	mov    $0x403fd7,%esi
  402794:	4c 89 e7             	mov    %r12,%rdi
  402797:	e8 94 e6 ff ff       	callq  400e30 <__isoc99_sscanf@plt>
  40279c:	44 8b 85 9c 5f ff ff 	mov    -0xa064(%rbp),%r8d
  4027a3:	41 81 f8 c8 00 00 00 	cmp    $0xc8,%r8d
  4027aa:	0f 85 6c 02 00 00    	jne    402a1c <rio_readlineb.constprop.0+0x67c>
  4027b0:	48 8b 85 88 5f ff ff 	mov    -0xa078(%rbp),%rax
  4027b7:	49 89 c7             	mov    %rax,%r15
  4027ba:	eb 1c                	jmp    4027d8 <rio_readlineb.constprop.0+0x438>
  4027bc:	0f 1f 40 00          	nopl   0x0(%rax)
  4027c0:	48 8d bd b0 5f ff ff 	lea    -0xa050(%rbp),%rdi
  4027c7:	4c 89 e6             	mov    %r12,%rsi
  4027ca:	e8 d1 fb ff ff       	callq  4023a0 <rio_readlineb.constprop.0>
  4027cf:	48 85 c0             	test   %rax,%rax
  4027d2:	0f 8e 48 01 00 00    	jle    402920 <rio_readlineb.constprop.0+0x580>
  4027d8:	80 bd c0 7f ff ff 0d 	cmpb   $0xd,-0x8040(%rbp)
  4027df:	75 df                	jne    4027c0 <rio_readlineb.constprop.0+0x420>
  4027e1:	80 bd c1 7f ff ff 0a 	cmpb   $0xa,-0x803f(%rbp)
  4027e8:	75 d6                	jne    4027c0 <rio_readlineb.constprop.0+0x420>
  4027ea:	80 bd c2 7f ff ff 00 	cmpb   $0x0,-0x803e(%rbp)
  4027f1:	75 cd                	jne    4027c0 <rio_readlineb.constprop.0+0x420>
  4027f3:	48 8d bd b0 5f ff ff 	lea    -0xa050(%rbp),%rdi
  4027fa:	4c 89 e6             	mov    %r12,%rsi
  4027fd:	4c 89 bd 88 5f ff ff 	mov    %r15,-0xa078(%rbp)
  402804:	e8 97 fb ff ff       	callq  4023a0 <rio_readlineb.constprop.0>
  402809:	48 85 c0             	test   %rax,%rax
  40280c:	0f 8e 80 04 00 00    	jle    402c92 <rio_readlineb.constprop.0+0x8f2>
  402812:	4c 8b bd 88 5f ff ff 	mov    -0xa078(%rbp),%r15
  402819:	4c 89 e6             	mov    %r12,%rsi
  40281c:	4c 89 ff             	mov    %r15,%rdi
  40281f:	e8 dc e4 ff ff       	callq  400d00 <strcpy@plt>
  402824:	89 df                	mov    %ebx,%edi
  402826:	e8 45 e5 ff ff       	callq  400d70 <close@plt>
  40282b:	41 0f b6 17          	movzbl (%r15),%edx
  40282f:	b8 4f 00 00 00       	mov    $0x4f,%eax
  402834:	29 d0                	sub    %edx,%eax
  402836:	75 12                	jne    40284a <rio_readlineb.constprop.0+0x4aa>
  402838:	41 0f b6 57 01       	movzbl 0x1(%r15),%edx
  40283d:	b8 4b 00 00 00       	mov    $0x4b,%eax
  402842:	29 d0                	sub    %edx,%eax
  402844:	0f 84 4d 01 00 00    	je     402997 <rio_readlineb.constprop.0+0x5f7>
  40284a:	85 c0                	test   %eax,%eax
  40284c:	0f 95 c0             	setne  %al
  40284f:	0f b6 c0             	movzbl %al,%eax
  402852:	f7 d8                	neg    %eax
  402854:	48 8b 4d c8          	mov    -0x38(%rbp),%rcx
  402858:	64 48 33 0c 25 28 00 	xor    %fs:0x28,%rcx
  40285f:	00 00 
  402861:	0f 85 a4 04 00 00    	jne    402d0b <rio_readlineb.constprop.0+0x96b>
  402867:	48 8d 65 d8          	lea    -0x28(%rbp),%rsp
  40286b:	5b                   	pop    %rbx
  40286c:	41 5c                	pop    %r12
  40286e:	41 5d                	pop    %r13
  402870:	41 5e                	pop    %r14
  402872:	41 5f                	pop    %r15
  402874:	5d                   	pop    %rbp
  402875:	c3                   	retq   
  402876:	66 2e 0f 1f 84 00 00 	nopw   %cs:0x0(%rax,%rax,1)
  40287d:	00 00 00 
  402880:	49 0f a3 c6          	bt     %rax,%r14
  402884:	0f 83 5f fd ff ff    	jae    4025e9 <rio_readlineb.constprop.0+0x249>
  40288a:	45 88 04 24          	mov    %r8b,(%r12)
  40288e:	49 83 c4 01          	add    $0x1,%r12
  402892:	49 83 c5 01          	add    $0x1,%r13
  402896:	4d 39 ef             	cmp    %r13,%r15
  402899:	0f 85 39 fd ff ff    	jne    4025d8 <rio_readlineb.constprop.0+0x238>
  40289f:	e9 dc fd ff ff       	jmpq   402680 <rio_readlineb.constprop.0+0x2e0>
  4028a4:	0f 1f 40 00          	nopl   0x0(%rax)
  4028a8:	e8 43 e4 ff ff       	callq  400cf0 <__errno_location@plt>
  4028ad:	83 38 04             	cmpl   $0x4,(%rax)
  4028b0:	0f 84 5a fe ff ff    	je     402710 <rio_readlineb.constprop.0+0x370>
  4028b6:	48 8b 85 88 5f ff ff 	mov    -0xa078(%rbp),%rax
  4028bd:	48 b9 45 72 72 6f 72 	movabs $0x43203a726f727245,%rcx
  4028c4:	3a 20 43 
  4028c7:	c7 40 28 76 65 72 00 	movl   $0x726576,0x28(%rax)
  4028ce:	89 df                	mov    %ebx,%edi
  4028d0:	48 89 08             	mov    %rcx,(%rax)
  4028d3:	48 b9 6c 69 65 6e 74 	movabs $0x6e7520746e65696c,%rcx
  4028da:	20 75 6e 
  4028dd:	48 89 48 08          	mov    %rcx,0x8(%rax)
  4028e1:	48 b9 61 62 6c 65 20 	movabs $0x206f7420656c6261,%rcx
  4028e8:	74 6f 20 
  4028eb:	48 89 48 10          	mov    %rcx,0x10(%rax)
  4028ef:	48 b9 77 72 69 74 65 	movabs $0x6f74206574697277,%rcx
  4028f6:	20 74 6f 
  4028f9:	48 89 48 18          	mov    %rcx,0x18(%rax)
  4028fd:	48 b9 20 74 68 65 20 	movabs $0x7265732065687420,%rcx
  402904:	73 65 72 
  402907:	48 89 48 20          	mov    %rcx,0x20(%rax)
  40290b:	e8 60 e4 ff ff       	callq  400d70 <close@plt>
  402910:	b8 ff ff ff ff       	mov    $0xffffffff,%eax
  402915:	e9 3a ff ff ff       	jmpq   402854 <rio_readlineb.constprop.0+0x4b4>
  40291a:	66 0f 1f 44 00 00    	nopw   0x0(%rax,%rax,1)
  402920:	48 b9 45 72 72 6f 72 	movabs $0x43203a726f727245,%rcx
  402927:	3a 20 43 
  40292a:	41 c6 47 30 00       	movb   $0x0,0x30(%r15)
  40292f:	89 df                	mov    %ebx,%edi
  402931:	49 89 0f             	mov    %rcx,(%r15)
  402934:	48 b9 6c 69 65 6e 74 	movabs $0x6e7520746e65696c,%rcx
  40293b:	20 75 6e 
  40293e:	49 89 4f 08          	mov    %rcx,0x8(%r15)
  402942:	48 b9 61 62 6c 65 20 	movabs $0x206f7420656c6261,%rcx
  402949:	74 6f 20 
  40294c:	49 89 4f 10          	mov    %rcx,0x10(%r15)
  402950:	48 b9 72 65 61 64 20 	movabs $0x6165682064616572,%rcx
  402957:	68 65 61 
  40295a:	49 89 4f 18          	mov    %rcx,0x18(%r15)
  40295e:	48 b9 64 65 72 73 20 	movabs $0x6f72662073726564,%rcx
  402965:	66 72 6f 
  402968:	49 89 4f 20          	mov    %rcx,0x20(%r15)
  40296c:	48 b9 6d 20 73 65 72 	movabs $0x726576726573206d,%rcx
  402973:	76 65 72 
  402976:	49 89 4f 28          	mov    %rcx,0x28(%r15)
  40297a:	e8 f1 e3 ff ff       	callq  400d70 <close@plt>
  40297f:	b8 ff ff ff ff       	mov    $0xffffffff,%eax
  402984:	e9 cb fe ff ff       	jmpq   402854 <rio_readlineb.constprop.0+0x4b4>
  402989:	41 c6 04 24 2b       	movb   $0x2b,(%r12)
  40298e:	49 83 c4 01          	add    $0x1,%r12
  402992:	e9 fb fe ff ff       	jmpq   402892 <rio_readlineb.constprop.0+0x4f2>
  402997:	41 0f b6 47 02       	movzbl 0x2(%r15),%eax
  40299c:	f7 d8                	neg    %eax
  40299e:	e9 a7 fe ff ff       	jmpq   40284a <rio_readlineb.constprop.0+0x4aa>
  4029a3:	48 8b 85 88 5f ff ff 	mov    -0xa078(%rbp),%rax
  4029aa:	48 b9 45 72 72 6f 72 	movabs $0x52203a726f727245,%rcx
  4029b1:	3a 20 52 
  4029b4:	89 df                	mov    %ebx,%edi
  4029b6:	48 89 08             	mov    %rcx,(%rax)
  4029b9:	48 b9 65 73 75 6c 74 	movabs $0x747320746c757365,%rcx
  4029c0:	20 73 74 
  4029c3:	48 89 48 08          	mov    %rcx,0x8(%rax)
  4029c7:	48 b9 72 69 6e 67 20 	movabs $0x6f6f7420676e6972,%rcx
  4029ce:	74 6f 6f 
  4029d1:	48 89 48 10          	mov    %rcx,0x10(%rax)
  4029d5:	48 b9 20 6c 61 72 67 	movabs $0x202e656772616c20,%rcx
  4029dc:	65 2e 20 
  4029df:	48 89 48 18          	mov    %rcx,0x18(%rax)
  4029e3:	48 b9 49 6e 63 72 65 	movabs $0x6573616572636e49,%rcx
  4029ea:	61 73 65 
  4029ed:	48 89 48 20          	mov    %rcx,0x20(%rax)
  4029f1:	48 b9 20 53 55 42 4d 	movabs $0x5254494d42555320,%rcx
  4029f8:	49 54 52 
  4029fb:	48 89 48 28          	mov    %rcx,0x28(%rax)
  4029ff:	48 b9 5f 4d 41 58 42 	movabs $0x46554258414d5f,%rcx
  402a06:	55 46 00 
  402a09:	48 89 48 30          	mov    %rcx,0x30(%rax)
  402a0d:	e8 5e e3 ff ff       	callq  400d70 <close@plt>
  402a12:	b8 ff ff ff ff       	mov    $0xffffffff,%eax
  402a17:	e9 38 fe ff ff       	jmpq   402854 <rio_readlineb.constprop.0+0x4b4>
  402a1c:	48 8b bd 88 5f ff ff 	mov    -0xa078(%rbp),%rdi
  402a23:	4c 8d 8d c0 df ff ff 	lea    -0x2040(%rbp),%r9
  402a2a:	b9 20 3f 40 00       	mov    $0x403f20,%ecx
  402a2f:	48 c7 c2 ff ff ff ff 	mov    $0xffffffffffffffff,%rdx
  402a36:	be 01 00 00 00       	mov    $0x1,%esi
  402a3b:	31 c0                	xor    %eax,%eax
  402a3d:	e8 9e e4 ff ff       	callq  400ee0 <__sprintf_chk@plt>
  402a42:	89 df                	mov    %ebx,%edi
  402a44:	e8 27 e3 ff ff       	callq  400d70 <close@plt>
  402a49:	b8 ff ff ff ff       	mov    $0xffffffff,%eax
  402a4e:	e9 01 fe ff ff       	jmpq   402854 <rio_readlineb.constprop.0+0x4b4>
  402a53:	48 8b 85 88 5f ff ff 	mov    -0xa078(%rbp),%rax
  402a5a:	48 b9 45 72 72 6f 72 	movabs $0x52203a726f727245,%rcx
  402a61:	3a 20 52 
  402a64:	89 df                	mov    %ebx,%edi
  402a66:	48 89 08             	mov    %rcx,(%rax)
  402a69:	48 b9 65 73 75 6c 74 	movabs $0x747320746c757365,%rcx
  402a70:	20 73 74 
  402a73:	c6 40 42 00          	movb   $0x0,0x42(%rax)
  402a77:	48 89 48 08          	mov    %rcx,0x8(%rax)
  402a7b:	48 b9 72 69 6e 67 20 	movabs $0x6e6f6320676e6972,%rcx
  402a82:	63 6f 6e 
  402a85:	48 89 48 10          	mov    %rcx,0x10(%rax)
  402a89:	48 b9 74 61 69 6e 73 	movabs $0x6e6120736e696174,%rcx
  402a90:	20 61 6e 
  402a93:	48 89 48 18          	mov    %rcx,0x18(%rax)
  402a97:	48 b9 20 69 6c 6c 65 	movabs $0x6c6167656c6c6920,%rcx
  402a9e:	67 61 6c 
  402aa1:	48 89 48 20          	mov    %rcx,0x20(%rax)
  402aa5:	48 b9 20 6f 72 20 75 	movabs $0x72706e7520726f20,%rcx
  402aac:	6e 70 72 
  402aaf:	48 89 48 28          	mov    %rcx,0x28(%rax)
  402ab3:	48 b9 69 6e 74 61 62 	movabs $0x20656c6261746e69,%rcx
  402aba:	6c 65 20 
  402abd:	48 89 48 30          	mov    %rcx,0x30(%rax)
  402ac1:	48 b9 63 68 61 72 61 	movabs $0x6574636172616863,%rcx
  402ac8:	63 74 65 
  402acb:	48 89 48 38          	mov    %rcx,0x38(%rax)
  402acf:	b9 72 2e 00 00       	mov    $0x2e72,%ecx
  402ad4:	66 89 48 40          	mov    %cx,0x40(%rax)
  402ad8:	e8 93 e2 ff ff       	callq  400d70 <close@plt>
  402add:	b8 ff ff ff ff       	mov    $0xffffffff,%eax
  402ae2:	e9 6d fd ff ff       	jmpq   402854 <rio_readlineb.constprop.0+0x4b4>
  402ae7:	48 8b 85 88 5f ff ff 	mov    -0xa078(%rbp),%rax
  402aee:	48 b9 45 72 72 6f 72 	movabs $0x43203a726f727245,%rcx
  402af5:	3a 20 43 
  402af8:	be 72 00 00 00       	mov    $0x72,%esi
  402afd:	89 df                	mov    %ebx,%edi
  402aff:	48 89 08             	mov    %rcx,(%rax)
  402b02:	48 b9 6c 69 65 6e 74 	movabs $0x6e7520746e65696c,%rcx
  402b09:	20 75 6e 
  402b0c:	c7 40 30 65 72 76 65 	movl   $0x65767265,0x30(%rax)
  402b13:	48 89 48 08          	mov    %rcx,0x8(%rax)
  402b17:	48 b9 61 62 6c 65 20 	movabs $0x206f7420656c6261,%rcx
  402b1e:	74 6f 20 
  402b21:	66 89 70 34          	mov    %si,0x34(%rax)
  402b25:	48 89 48 10          	mov    %rcx,0x10(%rax)
  402b29:	48 b9 72 65 61 64 20 	movabs $0x7269662064616572,%rcx
  402b30:	66 69 72 
  402b33:	48 89 48 18          	mov    %rcx,0x18(%rax)
  402b37:	48 b9 73 74 20 68 65 	movabs $0x6564616568207473,%rcx
  402b3e:	61 64 65 
  402b41:	48 89 48 20          	mov    %rcx,0x20(%rax)
  402b45:	48 b9 72 20 66 72 6f 	movabs $0x73206d6f72662072,%rcx
  402b4c:	6d 20 73 
  402b4f:	48 89 48 28          	mov    %rcx,0x28(%rax)
  402b53:	e8 18 e2 ff ff       	callq  400d70 <close@plt>
  402b58:	b8 ff ff ff ff       	mov    $0xffffffff,%eax
  402b5d:	e9 f2 fc ff ff       	jmpq   402854 <rio_readlineb.constprop.0+0x4b4>
  402b62:	48 8b 85 88 5f ff ff 	mov    -0xa078(%rbp),%rax
  402b69:	48 b9 45 72 72 6f 72 	movabs $0x43203a726f727245,%rcx
  402b70:	3a 20 43 
  402b73:	41 ba 74 00 00 00    	mov    $0x74,%r10d
  402b79:	48 89 08             	mov    %rcx,(%rax)
  402b7c:	48 b9 6c 69 65 6e 74 	movabs $0x6e7520746e65696c,%rcx
  402b83:	20 75 6e 
  402b86:	c7 40 20 6f 63 6b 65 	movl   $0x656b636f,0x20(%rax)
  402b8d:	48 89 48 08          	mov    %rcx,0x8(%rax)
  402b91:	48 b9 61 62 6c 65 20 	movabs $0x206f7420656c6261,%rcx
  402b98:	74 6f 20 
  402b9b:	66 44 89 50 24       	mov    %r10w,0x24(%rax)
  402ba0:	48 89 48 10          	mov    %rcx,0x10(%rax)
  402ba4:	48 b9 63 72 65 61 74 	movabs $0x7320657461657263,%rcx
  402bab:	65 20 73 
  402bae:	48 89 48 18          	mov    %rcx,0x18(%rax)
  402bb2:	b8 ff ff ff ff       	mov    $0xffffffff,%eax
  402bb7:	e9 98 fc ff ff       	jmpq   402854 <rio_readlineb.constprop.0+0x4b4>
  402bbc:	48 8b 85 88 5f ff ff 	mov    -0xa078(%rbp),%rax
  402bc3:	48 b9 45 72 72 6f 72 	movabs $0x44203a726f727245,%rcx
  402bca:	3a 20 44 
  402bcd:	41 b9 73 73 00 00    	mov    $0x7373,%r9d
  402bd3:	89 df                	mov    %ebx,%edi
  402bd5:	48 89 08             	mov    %rcx,(%rax)
  402bd8:	48 b9 4e 53 20 69 73 	movabs $0x6e7520736920534e,%rcx
  402bdf:	20 75 6e 
  402be2:	c7 40 28 64 64 72 65 	movl   $0x65726464,0x28(%rax)
  402be9:	48 89 48 08          	mov    %rcx,0x8(%rax)
  402bed:	48 b9 61 62 6c 65 20 	movabs $0x206f7420656c6261,%rcx
  402bf4:	74 6f 20 
  402bf7:	66 44 89 48 2c       	mov    %r9w,0x2c(%rax)
  402bfc:	48 89 48 10          	mov    %rcx,0x10(%rax)
  402c00:	48 b9 72 65 73 6f 6c 	movabs $0x2065766c6f736572,%rcx
  402c07:	76 65 20 
  402c0a:	c6 40 2e 00          	movb   $0x0,0x2e(%rax)
  402c0e:	48 89 48 18          	mov    %rcx,0x18(%rax)
  402c12:	48 b9 73 65 72 76 65 	movabs $0x6120726576726573,%rcx
  402c19:	72 20 61 
  402c1c:	48 89 48 20          	mov    %rcx,0x20(%rax)
  402c20:	e8 4b e1 ff ff       	callq  400d70 <close@plt>
  402c25:	b8 ff ff ff ff       	mov    $0xffffffff,%eax
  402c2a:	e9 25 fc ff ff       	jmpq   402854 <rio_readlineb.constprop.0+0x4b4>
  402c2f:	48 8b 85 88 5f ff ff 	mov    -0xa078(%rbp),%rax
  402c36:	48 b9 45 72 72 6f 72 	movabs $0x55203a726f727245,%rcx
  402c3d:	3a 20 55 
  402c40:	bf 65 72 00 00       	mov    $0x7265,%edi
  402c45:	48 89 08             	mov    %rcx,(%rax)
  402c48:	48 b9 6e 61 62 6c 65 	movabs $0x6f7420656c62616e,%rcx
  402c4f:	20 74 6f 
  402c52:	66 89 78 24          	mov    %di,0x24(%rax)
  402c56:	48 89 48 08          	mov    %rcx,0x8(%rax)
  402c5a:	48 b9 20 63 6f 6e 6e 	movabs $0x7463656e6e6f6320,%rcx
  402c61:	65 63 74 
  402c64:	c7 40 20 73 65 72 76 	movl   $0x76726573,0x20(%rax)
  402c6b:	48 89 48 10          	mov    %rcx,0x10(%rax)
  402c6f:	48 b9 20 74 6f 20 74 	movabs $0x20656874206f7420,%rcx
  402c76:	68 65 20 
  402c79:	c6 40 26 00          	movb   $0x0,0x26(%rax)
  402c7d:	48 89 48 18          	mov    %rcx,0x18(%rax)
  402c81:	89 df                	mov    %ebx,%edi
  402c83:	e8 e8 e0 ff ff       	callq  400d70 <close@plt>
  402c88:	b8 ff ff ff ff       	mov    $0xffffffff,%eax
  402c8d:	e9 c2 fb ff ff       	jmpq   402854 <rio_readlineb.constprop.0+0x4b4>
  402c92:	48 8b 85 88 5f ff ff 	mov    -0xa078(%rbp),%rax
  402c99:	48 b9 45 72 72 6f 72 	movabs $0x43203a726f727245,%rcx
  402ca0:	3a 20 43 
  402ca3:	89 df                	mov    %ebx,%edi
  402ca5:	48 89 08             	mov    %rcx,(%rax)
  402ca8:	48 b9 6c 69 65 6e 74 	movabs $0x6e7520746e65696c,%rcx
  402caf:	20 75 6e 
  402cb2:	48 89 48 08          	mov    %rcx,0x8(%rax)
  402cb6:	48 b9 61 62 6c 65 20 	movabs $0x206f7420656c6261,%rcx
  402cbd:	74 6f 20 
  402cc0:	48 89 48 10          	mov    %rcx,0x10(%rax)
  402cc4:	48 b9 72 65 61 64 20 	movabs $0x6174732064616572,%rcx
  402ccb:	73 74 61 
  402cce:	48 89 48 18          	mov    %rcx,0x18(%rax)
  402cd2:	48 b9 74 75 73 20 6d 	movabs $0x7373656d20737574,%rcx
  402cd9:	65 73 73 
  402cdc:	48 89 48 20          	mov    %rcx,0x20(%rax)
  402ce0:	48 b9 61 67 65 20 66 	movabs $0x6d6f726620656761,%rcx
  402ce7:	72 6f 6d 
  402cea:	48 89 48 28          	mov    %rcx,0x28(%rax)
  402cee:	48 b9 20 73 65 72 76 	movabs $0x72657672657320,%rcx
  402cf5:	65 72 00 
  402cf8:	48 89 48 30          	mov    %rcx,0x30(%rax)
  402cfc:	e8 6f e0 ff ff       	callq  400d70 <close@plt>
  402d01:	b8 ff ff ff ff       	mov    $0xffffffff,%eax
  402d06:	e9 49 fb ff ff       	jmpq   402854 <rio_readlineb.constprop.0+0x4b4>
  402d0b:	e8 30 e0 ff ff       	callq  400d40 <__stack_chk_fail@plt>

0000000000402d10 <init_timeout>:
  402d10:	85 ff                	test   %edi,%edi
  402d12:	74 2c                	je     402d40 <init_timeout+0x30>
  402d14:	53                   	push   %rbx
  402d15:	be 70 23 40 00       	mov    $0x402370,%esi
  402d1a:	89 fb                	mov    %edi,%ebx
  402d1c:	bf 0e 00 00 00       	mov    $0xe,%edi
  402d21:	e8 aa e0 ff ff       	callq  400dd0 <signal@plt>
  402d26:	85 db                	test   %ebx,%ebx
  402d28:	bf 00 00 00 00       	mov    $0x0,%edi
  402d2d:	0f 49 fb             	cmovns %ebx,%edi
  402d30:	5b                   	pop    %rbx
  402d31:	e9 2a e0 ff ff       	jmpq   400d60 <alarm@plt>
  402d36:	66 2e 0f 1f 84 00 00 	nopw   %cs:0x0(%rax,%rax,1)
  402d3d:	00 00 00 
  402d40:	f3 c3                	repz retq 
  402d42:	0f 1f 40 00          	nopl   0x0(%rax)
  402d46:	66 2e 0f 1f 84 00 00 	nopw   %cs:0x0(%rax,%rax,1)
  402d4d:	00 00 00 

0000000000402d50 <init_driver>:
  402d50:	55                   	push   %rbp
  402d51:	53                   	push   %rbx
  402d52:	be 01 00 00 00       	mov    $0x1,%esi
  402d57:	48 89 fd             	mov    %rdi,%rbp
  402d5a:	bf 0d 00 00 00       	mov    $0xd,%edi
  402d5f:	48 83 ec 28          	sub    $0x28,%rsp
  402d63:	64 48 8b 04 25 28 00 	mov    %fs:0x28,%rax
  402d6a:	00 00 
  402d6c:	48 89 44 24 18       	mov    %rax,0x18(%rsp)
  402d71:	31 c0                	xor    %eax,%eax
  402d73:	e8 58 e0 ff ff       	callq  400dd0 <signal@plt>
  402d78:	be 01 00 00 00       	mov    $0x1,%esi
  402d7d:	bf 1d 00 00 00       	mov    $0x1d,%edi
  402d82:	e8 49 e0 ff ff       	callq  400dd0 <signal@plt>
  402d87:	be 01 00 00 00       	mov    $0x1,%esi
  402d8c:	bf 1d 00 00 00       	mov    $0x1d,%edi
  402d91:	e8 3a e0 ff ff       	callq  400dd0 <signal@plt>
  402d96:	31 d2                	xor    %edx,%edx
  402d98:	be 01 00 00 00       	mov    $0x1,%esi
  402d9d:	bf 02 00 00 00       	mov    $0x2,%edi
  402da2:	e8 49 e1 ff ff       	callq  400ef0 <socket@plt>
  402da7:	85 c0                	test   %eax,%eax
  402da9:	0f 88 a1 00 00 00    	js     402e50 <init_driver+0x100>
  402daf:	bf e8 3f 40 00       	mov    $0x403fe8,%edi
  402db4:	89 c3                	mov    %eax,%ebx
  402db6:	e8 25 e0 ff ff       	callq  400de0 <gethostbyname@plt>
  402dbb:	48 85 c0             	test   %rax,%rax
  402dbe:	0f 84 0e 01 00 00    	je     402ed2 <init_driver+0x182>
  402dc4:	ba 02 00 00 00       	mov    $0x2,%edx
  402dc9:	48 c7 04 24 00 00 00 	movq   $0x0,(%rsp)
  402dd0:	00 
  402dd1:	48 c7 44 24 08 00 00 	movq   $0x0,0x8(%rsp)
  402dd8:	00 00 
  402dda:	66 89 14 24          	mov    %dx,(%rsp)
  402dde:	48 63 50 14          	movslq 0x14(%rax),%rdx
  402de2:	48 8d 7c 24 04       	lea    0x4(%rsp),%rdi
  402de7:	48 8b 40 18          	mov    0x18(%rax),%rax
  402deb:	b9 0c 00 00 00       	mov    $0xc,%ecx
  402df0:	48 8b 30             	mov    (%rax),%rsi
  402df3:	e8 f8 df ff ff       	callq  400df0 <__memmove_chk@plt>
  402df8:	b9 3b 6d 00 00       	mov    $0x6d3b,%ecx
  402dfd:	ba 10 00 00 00       	mov    $0x10,%edx
  402e02:	48 89 e6             	mov    %rsp,%rsi
  402e05:	89 df                	mov    %ebx,%edi
  402e07:	66 89 4c 24 02       	mov    %cx,0x2(%rsp)
  402e0c:	e8 7f e0 ff ff       	callq  400e90 <connect@plt>
  402e11:	85 c0                	test   %eax,%eax
  402e13:	0f 88 87 00 00 00    	js     402ea0 <init_driver+0x150>
  402e19:	89 df                	mov    %ebx,%edi
  402e1b:	e8 50 df ff ff       	callq  400d70 <close@plt>
  402e20:	b8 4f 4b 00 00       	mov    $0x4b4f,%eax
  402e25:	c6 45 02 00          	movb   $0x0,0x2(%rbp)
  402e29:	66 89 45 00          	mov    %ax,0x0(%rbp)
  402e2d:	31 c0                	xor    %eax,%eax
  402e2f:	48 8b 4c 24 18       	mov    0x18(%rsp),%rcx
  402e34:	64 48 33 0c 25 28 00 	xor    %fs:0x28,%rcx
  402e3b:	00 00 
  402e3d:	0f 85 fa 00 00 00    	jne    402f3d <init_driver+0x1ed>
  402e43:	48 83 c4 28          	add    $0x28,%rsp
  402e47:	5b                   	pop    %rbx
  402e48:	5d                   	pop    %rbp
  402e49:	c3                   	retq   
  402e4a:	66 0f 1f 44 00 00    	nopw   0x0(%rax,%rax,1)
  402e50:	48 b8 45 72 72 6f 72 	movabs $0x43203a726f727245,%rax
  402e57:	3a 20 43 
  402e5a:	bf 74 00 00 00       	mov    $0x74,%edi
  402e5f:	c7 45 20 6f 63 6b 65 	movl   $0x656b636f,0x20(%rbp)
  402e66:	48 89 45 00          	mov    %rax,0x0(%rbp)
  402e6a:	48 b8 6c 69 65 6e 74 	movabs $0x6e7520746e65696c,%rax
  402e71:	20 75 6e 
  402e74:	66 89 7d 24          	mov    %di,0x24(%rbp)
  402e78:	48 89 45 08          	mov    %rax,0x8(%rbp)
  402e7c:	48 b8 61 62 6c 65 20 	movabs $0x206f7420656c6261,%rax
  402e83:	74 6f 20 
  402e86:	48 89 45 10          	mov    %rax,0x10(%rbp)
  402e8a:	48 b8 63 72 65 61 74 	movabs $0x7320657461657263,%rax
  402e91:	65 20 73 
  402e94:	48 89 45 18          	mov    %rax,0x18(%rbp)
  402e98:	b8 ff ff ff ff       	mov    $0xffffffff,%eax
  402e9d:	eb 90                	jmp    402e2f <init_driver+0xdf>
  402e9f:	90                   	nop
  402ea0:	41 b8 e8 3f 40 00    	mov    $0x403fe8,%r8d
  402ea6:	b9 a8 3f 40 00       	mov    $0x403fa8,%ecx
  402eab:	48 c7 c2 ff ff ff ff 	mov    $0xffffffffffffffff,%rdx
  402eb2:	be 01 00 00 00       	mov    $0x1,%esi
  402eb7:	48 89 ef             	mov    %rbp,%rdi
  402eba:	31 c0                	xor    %eax,%eax
  402ebc:	e8 1f e0 ff ff       	callq  400ee0 <__sprintf_chk@plt>
  402ec1:	89 df                	mov    %ebx,%edi
  402ec3:	e8 a8 de ff ff       	callq  400d70 <close@plt>
  402ec8:	b8 ff ff ff ff       	mov    $0xffffffff,%eax
  402ecd:	e9 5d ff ff ff       	jmpq   402e2f <init_driver+0xdf>
  402ed2:	48 b8 45 72 72 6f 72 	movabs $0x44203a726f727245,%rax
  402ed9:	3a 20 44 
  402edc:	be 73 73 00 00       	mov    $0x7373,%esi
  402ee1:	c7 45 28 64 64 72 65 	movl   $0x65726464,0x28(%rbp)
  402ee8:	48 89 45 00          	mov    %rax,0x0(%rbp)
  402eec:	48 b8 4e 53 20 69 73 	movabs $0x6e7520736920534e,%rax
  402ef3:	20 75 6e 
  402ef6:	66 89 75 2c          	mov    %si,0x2c(%rbp)
  402efa:	48 89 45 08          	mov    %rax,0x8(%rbp)
  402efe:	48 b8 61 62 6c 65 20 	movabs $0x206f7420656c6261,%rax
  402f05:	74 6f 20 
  402f08:	c6 45 2e 00          	movb   $0x0,0x2e(%rbp)
  402f0c:	48 89 45 10          	mov    %rax,0x10(%rbp)
  402f10:	48 b8 72 65 73 6f 6c 	movabs $0x2065766c6f736572,%rax
  402f17:	76 65 20 
  402f1a:	89 df                	mov    %ebx,%edi
  402f1c:	48 89 45 18          	mov    %rax,0x18(%rbp)
  402f20:	48 b8 73 65 72 76 65 	movabs $0x6120726576726573,%rax
  402f27:	72 20 61 
  402f2a:	48 89 45 20          	mov    %rax,0x20(%rbp)
  402f2e:	e8 3d de ff ff       	callq  400d70 <close@plt>
  402f33:	b8 ff ff ff ff       	mov    $0xffffffff,%eax
  402f38:	e9 f2 fe ff ff       	jmpq   402e2f <init_driver+0xdf>
  402f3d:	e8 fe dd ff ff       	callq  400d40 <__stack_chk_fail@plt>
  402f42:	0f 1f 40 00          	nopl   0x0(%rax)
  402f46:	66 2e 0f 1f 84 00 00 	nopw   %cs:0x0(%rax,%rax,1)
  402f4d:	00 00 00 
  402f50:	48 83 ec 18          	sub    $0x18,%rsp
  402f54:	85 c9                	test   %ecx,%ecx
  402f56:	75 28                	jne    402f80 <init_driver+0x230>
  402f58:	48 85 ff             	test   %rdi,%rdi
  402f5b:	74 05                	je     402f62 <init_driver+0x212>
  402f5d:	80 3f 00             	cmpb   $0x0,(%rdi)
  402f60:	75 4e                	jne    402fb0 <init_driver+0x260>
  402f62:	b8 4f 4b 00 00       	mov    $0x4b4f,%eax
  402f67:	41 c6 40 02 00       	movb   $0x0,0x2(%r8)
  402f6c:	66 41 89 00          	mov    %ax,(%r8)
  402f70:	31 c0                	xor    %eax,%eax
  402f72:	48 83 c4 18          	add    $0x18,%rsp
  402f76:	c3                   	retq   
  402f77:	66 0f 1f 84 00 00 00 	nopw   0x0(%rax,%rax,1)
  402f7e:	00 00 
  402f80:	be fa 3f 40 00       	mov    $0x403ffa,%esi
  402f85:	bf 01 00 00 00       	mov    $0x1,%edi
  402f8a:	31 c0                	xor    %eax,%eax
  402f8c:	4c 89 44 24 08       	mov    %r8,0x8(%rsp)
  402f91:	e8 ba de ff ff       	callq  400e50 <__printf_chk@plt>
  402f96:	4c 8b 44 24 08       	mov    0x8(%rsp),%r8
  402f9b:	be 4f 4b 00 00       	mov    $0x4b4f,%esi
  402fa0:	31 c0                	xor    %eax,%eax
  402fa2:	66 41 89 30          	mov    %si,(%r8)
  402fa6:	41 c6 40 02 00       	movb   $0x0,0x2(%r8)
  402fab:	48 83 c4 18          	add    $0x18,%rsp
  402faf:	c3                   	retq   
  402fb0:	41 50                	push   %r8
  402fb2:	52                   	push   %rdx
  402fb3:	48 89 f9             	mov    %rdi,%rcx
  402fb6:	49 89 f0             	mov    %rsi,%r8
  402fb9:	ba 15 40 40 00       	mov    $0x404015,%edx
  402fbe:	41 b9 11 40 40 00    	mov    $0x404011,%r9d
  402fc4:	be 6d 3b 00 00       	mov    $0x3b6d,%esi
  402fc9:	bf e8 3f 40 00       	mov    $0x403fe8,%edi
  402fce:	e8 8d f4 ff ff       	callq  402460 <rio_readlineb.constprop.0+0xc0>
  402fd3:	5a                   	pop    %rdx
  402fd4:	59                   	pop    %rcx
  402fd5:	48 83 c4 18          	add    $0x18,%rsp
  402fd9:	c3                   	retq   
  402fda:	66 0f 1f 44 00 00    	nopw   0x0(%rax,%rax,1)

0000000000402fe0 <__libc_csu_init>:
  402fe0:	41 57                	push   %r15
  402fe2:	41 56                	push   %r14
  402fe4:	41 89 ff             	mov    %edi,%r15d
  402fe7:	41 55                	push   %r13
  402fe9:	41 54                	push   %r12
  402feb:	4c 8d 25 1e 1e 20 00 	lea    0x201e1e(%rip),%r12        # 604e10 <__frame_dummy_init_array_entry>
  402ff2:	55                   	push   %rbp
  402ff3:	48 8d 2d 1e 1e 20 00 	lea    0x201e1e(%rip),%rbp        # 604e18 <__init_array_end>
  402ffa:	53                   	push   %rbx
  402ffb:	49 89 f6             	mov    %rsi,%r14
  402ffe:	49 89 d5             	mov    %rdx,%r13
  403001:	4c 29 e5             	sub    %r12,%rbp
  403004:	48 83 ec 08          	sub    $0x8,%rsp
  403008:	48 c1 fd 03          	sar    $0x3,%rbp
  40300c:	e8 87 dc ff ff       	callq  400c98 <_init>
  403011:	48 85 ed             	test   %rbp,%rbp
  403014:	74 20                	je     403036 <__libc_csu_init+0x56>
  403016:	31 db                	xor    %ebx,%ebx
  403018:	0f 1f 84 00 00 00 00 	nopl   0x0(%rax,%rax,1)
  40301f:	00 
  403020:	4c 89 ea             	mov    %r13,%rdx
  403023:	4c 89 f6             	mov    %r14,%rsi
  403026:	44 89 ff             	mov    %r15d,%edi
  403029:	41 ff 14 dc          	callq  *(%r12,%rbx,8)
  40302d:	48 83 c3 01          	add    $0x1,%rbx
  403031:	48 39 eb             	cmp    %rbp,%rbx
  403034:	75 ea                	jne    403020 <__libc_csu_init+0x40>
  403036:	48 83 c4 08          	add    $0x8,%rsp
  40303a:	5b                   	pop    %rbx
  40303b:	5d                   	pop    %rbp
  40303c:	41 5c                	pop    %r12
  40303e:	41 5d                	pop    %r13
  403040:	41 5e                	pop    %r14
  403042:	41 5f                	pop    %r15
  403044:	c3                   	retq   
  403045:	90                   	nop
  403046:	66 2e 0f 1f 84 00 00 	nopw   %cs:0x0(%rax,%rax,1)
  40304d:	00 00 00 

0000000000403050 <__libc_csu_fini>:
  403050:	f3 c3                	repz retq 

Disassembly of section .fini:

0000000000403054 <_fini>:
  403054:	48 83 ec 08          	sub    $0x8,%rsp
  403058:	48 83 c4 08          	add    $0x8,%rsp
  40305c:	c3                   	retq   
